
_finder：     文件格式 elf32-i386


Disassembly of section .text:

00000000 <strstr>:
//测试相关函数
void printItemList();
void testHandlers();

char* strstr(const char *s1, const char *s2)  
{  
       0:	55                   	push   %ebp
       1:	89 e5                	mov    %esp,%ebp
       3:	83 ec 10             	sub    $0x10,%esp
	int n;  
	if (*s2)  
       6:	8b 45 0c             	mov    0xc(%ebp),%eax
       9:	0f b6 00             	movzbl (%eax),%eax
       c:	84 c0                	test   %al,%al
       e:	74 55                	je     65 <strstr+0x65>
	{  
		while (*s1)  
      10:	eb 42                	jmp    54 <strstr+0x54>
		{  
			for (n=0; *(s1 + n) == *(s2 + n); n++)  
      12:	c7 45 fc 00 00 00 00 	movl   $0x0,-0x4(%ebp)
      19:	eb 1b                	jmp    36 <strstr+0x36>
			{  
				if (!*(s2 + n + 1))  
      1b:	8b 45 fc             	mov    -0x4(%ebp),%eax
      1e:	8d 50 01             	lea    0x1(%eax),%edx
      21:	8b 45 0c             	mov    0xc(%ebp),%eax
      24:	01 d0                	add    %edx,%eax
      26:	0f b6 00             	movzbl (%eax),%eax
      29:	84 c0                	test   %al,%al
      2b:	75 05                	jne    32 <strstr+0x32>
					return (char *)s1;  
      2d:	8b 45 08             	mov    0x8(%ebp),%eax
      30:	eb 36                	jmp    68 <strstr+0x68>
	int n;  
	if (*s2)  
	{  
		while (*s1)  
		{  
			for (n=0; *(s1 + n) == *(s2 + n); n++)  
      32:	83 45 fc 01          	addl   $0x1,-0x4(%ebp)
      36:	8b 55 fc             	mov    -0x4(%ebp),%edx
      39:	8b 45 08             	mov    0x8(%ebp),%eax
      3c:	01 d0                	add    %edx,%eax
      3e:	0f b6 10             	movzbl (%eax),%edx
      41:	8b 4d fc             	mov    -0x4(%ebp),%ecx
      44:	8b 45 0c             	mov    0xc(%ebp),%eax
      47:	01 c8                	add    %ecx,%eax
      49:	0f b6 00             	movzbl (%eax),%eax
      4c:	38 c2                	cmp    %al,%dl
      4e:	74 cb                	je     1b <strstr+0x1b>
			{  
				if (!*(s2 + n + 1))  
					return (char *)s1;  
			}  
			s1++;  
      50:	83 45 08 01          	addl   $0x1,0x8(%ebp)
char* strstr(const char *s1, const char *s2)  
{  
	int n;  
	if (*s2)  
	{  
		while (*s1)  
      54:	8b 45 08             	mov    0x8(%ebp),%eax
      57:	0f b6 00             	movzbl (%eax),%eax
      5a:	84 c0                	test   %al,%al
      5c:	75 b4                	jne    12 <strstr+0x12>
				if (!*(s2 + n + 1))  
					return (char *)s1;  
			}  
			s1++;  
		}  
		return 0;  
      5e:	b8 00 00 00 00       	mov    $0x0,%eax
      63:	eb 03                	jmp    68 <strstr+0x68>
	}  
	else  
		return (char *)s1;  
      65:	8b 45 08             	mov    0x8(%ebp),%eax
}  
      68:	c9                   	leave  
      69:	c3                   	ret    

0000006a <init_keyContent>:
//         ++str2;
//     }
//     return *str1-*str2;
// }

void init_keyContent() {
      6a:	55                   	push   %ebp
      6b:	89 e5                	mov    %esp,%ebp
      6d:	83 ec 10             	sub    $0x10,%esp
	int i;
	for (i=0; i<MAX_KEYLENGTH; i++)
      70:	c7 45 fc 00 00 00 00 	movl   $0x0,-0x4(%ebp)
      77:	eb 0f                	jmp    88 <init_keyContent+0x1e>
		keyContent.content[i] = 0;
      79:	8b 45 fc             	mov    -0x4(%ebp),%eax
      7c:	05 0c 3f 01 00       	add    $0x13f0c,%eax
      81:	c6 00 00             	movb   $0x0,(%eax)
//     return *str1-*str2;
// }

void init_keyContent() {
	int i;
	for (i=0; i<MAX_KEYLENGTH; i++)
      84:	83 45 fc 01          	addl   $0x1,-0x4(%ebp)
      88:	83 7d fc 13          	cmpl   $0x13,-0x4(%ebp)
      8c:	7e eb                	jle    79 <init_keyContent+0xf>
		keyContent.content[i] = 0;
	keyContent.length = 0;
      8e:	c7 05 20 3f 01 00 00 	movl   $0x0,0x13f20
      95:	00 00 00 
}
      98:	c9                   	leave  
      99:	c3                   	ret    

0000009a <draw_searchbox>:

void draw_searchbox() {
      9a:	55                   	push   %ebp
      9b:	89 e5                	mov    %esp,%ebp
      9d:	83 ec 18             	sub    $0x18,%esp
	createClickable(&cm, initRect(10 * BUTTON_WIDTH + 100, TOPBAR_HEIGHT + TOOLSBAR_HEIGHT
      a0:	8d 45 e8             	lea    -0x18(%ebp),%eax
      a3:	83 ec 0c             	sub    $0xc,%esp
      a6:	6a 20                	push   $0x20
      a8:	6a 64                	push   $0x64
      aa:	6a 23                	push   $0x23
      ac:	68 a4 01 00 00       	push   $0x1a4
      b1:	50                   	push   %eax
      b2:	e8 1c 47 00 00       	call   47d3 <initRect>
      b7:	83 c4 1c             	add    $0x1c,%esp
      ba:	83 ec 04             	sub    $0x4,%esp
      bd:	68 97 13 00 00       	push   $0x1397
      c2:	6a 02                	push   $0x2
      c4:	ff 75 f4             	pushl  -0xc(%ebp)
      c7:	ff 75 f0             	pushl  -0x10(%ebp)
      ca:	ff 75 ec             	pushl  -0x14(%ebp)
      cd:	ff 75 e8             	pushl  -0x18(%ebp)
      d0:	68 40 40 01 00       	push   $0x14040
      d5:	e8 db 47 00 00       	call   48b5 <createClickable>
      da:	83 c4 20             	add    $0x20,%esp
				- (BUTTON_HEIGHT + 3), 100, BUTTON_HEIGHT), MSG_LPRESS, h_searchbox);
	if (isSearching == 0) {
      dd:	a1 c0 35 01 00       	mov    0x135c0,%eax
      e2:	85 c0                	test   %eax,%eax
      e4:	75 2c                	jne    112 <draw_searchbox+0x78>
		fill_rect(context, 10 * BUTTON_WIDTH + 100, TOPBAR_HEIGHT + TOOLSBAR_HEIGHT
      e6:	68 ff ff 00 00       	push   $0xffff
      eb:	6a 20                	push   $0x20
      ed:	6a 64                	push   $0x64
      ef:	6a 23                	push   $0x23
      f1:	68 a4 01 00 00       	push   $0x1a4
      f6:	ff 35 08 3f 01 00    	pushl  0x13f08
      fc:	ff 35 04 3f 01 00    	pushl  0x13f04
     102:	ff 35 00 3f 01 00    	pushl  0x13f00
     108:	e8 7b 35 00 00       	call   3688 <fill_rect>
     10d:	83 c4 20             	add    $0x20,%esp
     110:	eb 2a                	jmp    13c <draw_searchbox+0xa2>
				- (BUTTON_HEIGHT + 3), 100, BUTTON_HEIGHT, 0xFFFF);
	}
	else {
		fill_rect(context, 10 * BUTTON_WIDTH + 100, TOPBAR_HEIGHT + TOOLSBAR_HEIGHT
     112:	68 cc cc 00 00       	push   $0xcccc
     117:	6a 20                	push   $0x20
     119:	6a 64                	push   $0x64
     11b:	6a 23                	push   $0x23
     11d:	68 a4 01 00 00       	push   $0x1a4
     122:	ff 35 08 3f 01 00    	pushl  0x13f08
     128:	ff 35 04 3f 01 00    	pushl  0x13f04
     12e:	ff 35 00 3f 01 00    	pushl  0x13f00
     134:	e8 4f 35 00 00       	call   3688 <fill_rect>
     139:	83 c4 20             	add    $0x20,%esp
				- (BUTTON_HEIGHT + 3), 100, BUTTON_HEIGHT, 0xCCCC);
	}
}
     13c:	c9                   	leave  
     13d:	c3                   	ret    

0000013e <fileSortByName>:

void fileSortByName() {
     13e:	55                   	push   %ebp
     13f:	89 e5                	mov    %esp,%ebp
     141:	53                   	push   %ebx
     142:	83 ec 34             	sub    $0x34,%esp
	updateFileList(context);
     145:	83 ec 04             	sub    $0x4,%esp
     148:	ff 35 08 3f 01 00    	pushl  0x13f08
     14e:	ff 35 04 3f 01 00    	pushl  0x13f04
     154:	ff 35 00 3f 01 00    	pushl  0x13f00
     15a:	e8 90 0a 00 00       	call   bef <updateFileList>
     15f:	83 c4 10             	add    $0x10,%esp
	struct fileItem *head;
	head = fileItemList;
     162:	a1 50 07 01 00       	mov    0x10750,%eax
     167:	89 45 f4             	mov    %eax,-0xc(%ebp)
	int tempItemCounter = 0;
     16a:	c7 45 f0 00 00 00 00 	movl   $0x0,-0x10(%ebp)
    struct fileItem *first; 
    struct fileItem *t;  
    struct fileItem *p; 
    struct fileItem *q; 
  
    first = head->next; 
     171:	8b 45 f4             	mov    -0xc(%ebp),%eax
     174:	8b 40 2c             	mov    0x2c(%eax),%eax
     177:	89 45 ec             	mov    %eax,-0x14(%ebp)
    head->next = 0; 
     17a:	8b 45 f4             	mov    -0xc(%ebp),%eax
     17d:	c7 40 2c 00 00 00 00 	movl   $0x0,0x2c(%eax)
  
    while (first != 0) 
     184:	e9 ba 00 00 00       	jmp    243 <fileSortByName+0x105>
    {
    	tempItemCounter++; 
     189:	83 45 f0 01          	addl   $0x1,-0x10(%ebp)
        if (flag_fileSort == 0) {
     18d:	a1 48 07 01 00       	mov    0x10748,%eax
     192:	85 c0                	test   %eax,%eax
     194:	75 42                	jne    1d8 <fileSortByName+0x9a>
	        for (t = first, q = head; ((q != 0) && (strcmp(q->name, t->name) < 0)); p = q, q = q->next)
     196:	8b 45 ec             	mov    -0x14(%ebp),%eax
     199:	89 45 e8             	mov    %eax,-0x18(%ebp)
     19c:	8b 45 f4             	mov    -0xc(%ebp),%eax
     19f:	89 45 e0             	mov    %eax,-0x20(%ebp)
     1a2:	eb 0f                	jmp    1b3 <fileSortByName+0x75>
     1a4:	8b 45 e0             	mov    -0x20(%ebp),%eax
     1a7:	89 45 e4             	mov    %eax,-0x1c(%ebp)
     1aa:	8b 45 e0             	mov    -0x20(%ebp),%eax
     1ad:	8b 40 2c             	mov    0x2c(%eax),%eax
     1b0:	89 45 e0             	mov    %eax,-0x20(%ebp)
     1b3:	83 7d e0 00          	cmpl   $0x0,-0x20(%ebp)
     1b7:	74 5f                	je     218 <fileSortByName+0xda>
     1b9:	8b 45 e8             	mov    -0x18(%ebp),%eax
     1bc:	8b 50 14             	mov    0x14(%eax),%edx
     1bf:	8b 45 e0             	mov    -0x20(%ebp),%eax
     1c2:	8b 40 14             	mov    0x14(%eax),%eax
     1c5:	83 ec 08             	sub    $0x8,%esp
     1c8:	52                   	push   %edx
     1c9:	50                   	push   %eax
     1ca:	e8 ed 4b 00 00       	call   4dbc <strcmp>
     1cf:	83 c4 10             	add    $0x10,%esp
     1d2:	85 c0                	test   %eax,%eax
     1d4:	78 ce                	js     1a4 <fileSortByName+0x66>
     1d6:	eb 40                	jmp    218 <fileSortByName+0xda>
	        {

	        } 
        }
        else{
	        for (t = first, q = head; ((q != 0) && (strcmp(q->name, t->name) > 0)); p = q, q = q->next)
     1d8:	8b 45 ec             	mov    -0x14(%ebp),%eax
     1db:	89 45 e8             	mov    %eax,-0x18(%ebp)
     1de:	8b 45 f4             	mov    -0xc(%ebp),%eax
     1e1:	89 45 e0             	mov    %eax,-0x20(%ebp)
     1e4:	eb 0f                	jmp    1f5 <fileSortByName+0xb7>
     1e6:	8b 45 e0             	mov    -0x20(%ebp),%eax
     1e9:	89 45 e4             	mov    %eax,-0x1c(%ebp)
     1ec:	8b 45 e0             	mov    -0x20(%ebp),%eax
     1ef:	8b 40 2c             	mov    0x2c(%eax),%eax
     1f2:	89 45 e0             	mov    %eax,-0x20(%ebp)
     1f5:	83 7d e0 00          	cmpl   $0x0,-0x20(%ebp)
     1f9:	74 1d                	je     218 <fileSortByName+0xda>
     1fb:	8b 45 e8             	mov    -0x18(%ebp),%eax
     1fe:	8b 50 14             	mov    0x14(%eax),%edx
     201:	8b 45 e0             	mov    -0x20(%ebp),%eax
     204:	8b 40 14             	mov    0x14(%eax),%eax
     207:	83 ec 08             	sub    $0x8,%esp
     20a:	52                   	push   %edx
     20b:	50                   	push   %eax
     20c:	e8 ab 4b 00 00       	call   4dbc <strcmp>
     211:	83 c4 10             	add    $0x10,%esp
     214:	85 c0                	test   %eax,%eax
     216:	7f ce                	jg     1e6 <fileSortByName+0xa8>
	        {

	        }
        }
       
        first = first->next;  
     218:	8b 45 ec             	mov    -0x14(%ebp),%eax
     21b:	8b 40 2c             	mov    0x2c(%eax),%eax
     21e:	89 45 ec             	mov    %eax,-0x14(%ebp)
    
        if (q == head)   
     221:	8b 45 e0             	mov    -0x20(%ebp),%eax
     224:	3b 45 f4             	cmp    -0xc(%ebp),%eax
     227:	75 08                	jne    231 <fileSortByName+0xf3>
        {  
            head = t;  
     229:	8b 45 e8             	mov    -0x18(%ebp),%eax
     22c:	89 45 f4             	mov    %eax,-0xc(%ebp)
     22f:	eb 09                	jmp    23a <fileSortByName+0xfc>
        }  
        else   
        {  
            p->next = t;  
     231:	8b 45 e4             	mov    -0x1c(%ebp),%eax
     234:	8b 55 e8             	mov    -0x18(%ebp),%edx
     237:	89 50 2c             	mov    %edx,0x2c(%eax)
        }  
        t->next = q; 
     23a:	8b 45 e8             	mov    -0x18(%ebp),%eax
     23d:	8b 55 e0             	mov    -0x20(%ebp),%edx
     240:	89 50 2c             	mov    %edx,0x2c(%eax)
    struct fileItem *q; 
  
    first = head->next; 
    head->next = 0; 
  
    while (first != 0) 
     243:	83 7d ec 00          	cmpl   $0x0,-0x14(%ebp)
     247:	0f 85 3c ff ff ff    	jne    189 <fileSortByName+0x4b>
            p->next = t;  
        }  
        t->next = q; 
    }  

    if (flag_fileSort)
     24d:	a1 48 07 01 00       	mov    0x10748,%eax
     252:	85 c0                	test   %eax,%eax
     254:	74 0c                	je     262 <fileSortByName+0x124>
    	flag_fileSort = 0;
     256:	c7 05 48 07 01 00 00 	movl   $0x0,0x10748
     25d:	00 00 00 
     260:	eb 0a                	jmp    26c <fileSortByName+0x12e>
    else
    	flag_fileSort = 1;
     262:	c7 05 48 07 01 00 01 	movl   $0x1,0x10748
     269:	00 00 00 
    p = head;
     26c:	8b 45 f4             	mov    -0xc(%ebp),%eax
     26f:	89 45 e4             	mov    %eax,-0x1c(%ebp)
	while(p != 0) {
     272:	eb 4f                	jmp    2c3 <fileSortByName+0x185>
		p->pos = getPos(context, tempItemCounter--);
     274:	8b 45 f0             	mov    -0x10(%ebp),%eax
     277:	8d 50 ff             	lea    -0x1(%eax),%edx
     27a:	89 55 f0             	mov    %edx,-0x10(%ebp)
     27d:	8b 5d e4             	mov    -0x1c(%ebp),%ebx
     280:	8d 55 c8             	lea    -0x38(%ebp),%edx
     283:	83 ec 0c             	sub    $0xc,%esp
     286:	50                   	push   %eax
     287:	ff 35 08 3f 01 00    	pushl  0x13f08
     28d:	ff 35 04 3f 01 00    	pushl  0x13f04
     293:	ff 35 00 3f 01 00    	pushl  0x13f00
     299:	52                   	push   %edx
     29a:	e8 4b 0d 00 00       	call   fea <getPos>
     29f:	83 c4 1c             	add    $0x1c,%esp
     2a2:	8b 45 c8             	mov    -0x38(%ebp),%eax
     2a5:	89 43 18             	mov    %eax,0x18(%ebx)
     2a8:	8b 45 cc             	mov    -0x34(%ebp),%eax
     2ab:	89 43 1c             	mov    %eax,0x1c(%ebx)
     2ae:	8b 45 d0             	mov    -0x30(%ebp),%eax
     2b1:	89 43 20             	mov    %eax,0x20(%ebx)
     2b4:	8b 45 d4             	mov    -0x2c(%ebp),%eax
     2b7:	89 43 24             	mov    %eax,0x24(%ebx)
		p = p->next;
     2ba:	8b 45 e4             	mov    -0x1c(%ebp),%eax
     2bd:	8b 40 2c             	mov    0x2c(%eax),%eax
     2c0:	89 45 e4             	mov    %eax,-0x1c(%ebp)
    if (flag_fileSort)
    	flag_fileSort = 0;
    else
    	flag_fileSort = 1;
    p = head;
	while(p != 0) {
     2c3:	83 7d e4 00          	cmpl   $0x0,-0x1c(%ebp)
     2c7:	75 ab                	jne    274 <fileSortByName+0x136>
		p->pos = getPos(context, tempItemCounter--);
		p = p->next;
	}

    fileItemList = head;
     2c9:	8b 45 f4             	mov    -0xc(%ebp),%eax
     2cc:	a3 50 07 01 00       	mov    %eax,0x10750
}
     2d1:	8b 5d fc             	mov    -0x4(%ebp),%ebx
     2d4:	c9                   	leave  
     2d5:	c3                   	ret    

000002d6 <addFileItem>:

// 文件项列表相关操作
void addFileItem(struct stat st, char *name, Rect pos) {
     2d6:	55                   	push   %ebp
     2d7:	89 e5                	mov    %esp,%ebp
     2d9:	53                   	push   %ebx
     2da:	83 ec 24             	sub    $0x24,%esp
	//int i;
	struct fileItem *temp = (struct fileItem *) malloc(sizeof(struct fileItem));
     2dd:	83 ec 0c             	sub    $0xc,%esp
     2e0:	6a 30                	push   $0x30
     2e2:	e8 83 51 00 00       	call   546a <malloc>
     2e7:	83 c4 10             	add    $0x10,%esp
     2ea:	89 45 f4             	mov    %eax,-0xc(%ebp)
	temp->name = (char *) malloc(32 * sizeof(char));
     2ed:	83 ec 0c             	sub    $0xc,%esp
     2f0:	6a 20                	push   $0x20
     2f2:	e8 73 51 00 00       	call   546a <malloc>
     2f7:	83 c4 10             	add    $0x10,%esp
     2fa:	89 c2                	mov    %eax,%edx
     2fc:	8b 45 f4             	mov    -0xc(%ebp),%eax
     2ff:	89 50 14             	mov    %edx,0x14(%eax)
	strcpy(temp->name, name);
     302:	8b 45 f4             	mov    -0xc(%ebp),%eax
     305:	8b 40 14             	mov    0x14(%eax),%eax
     308:	83 ec 08             	sub    $0x8,%esp
     30b:	ff 75 1c             	pushl  0x1c(%ebp)
     30e:	50                   	push   %eax
     30f:	e8 78 4a 00 00       	call   4d8c <strcpy>
     314:	83 c4 10             	add    $0x10,%esp
//    for (i = 0; name[i] != 0; i++)
//    	{
//    		printf(0, "%d : %c\n", i, name[i]);
//    	}
	//printf(0, "copying name\n");
	temp->st = st;
     317:	8b 45 f4             	mov    -0xc(%ebp),%eax
     31a:	8b 55 08             	mov    0x8(%ebp),%edx
     31d:	89 10                	mov    %edx,(%eax)
     31f:	8b 55 0c             	mov    0xc(%ebp),%edx
     322:	89 50 04             	mov    %edx,0x4(%eax)
     325:	8b 55 10             	mov    0x10(%ebp),%edx
     328:	89 50 08             	mov    %edx,0x8(%eax)
     32b:	8b 55 14             	mov    0x14(%ebp),%edx
     32e:	89 50 0c             	mov    %edx,0xc(%eax)
     331:	8b 55 18             	mov    0x18(%ebp),%edx
     334:	89 50 10             	mov    %edx,0x10(%eax)
	temp->pos = getPos(context, itemCounter);
     337:	8b 15 54 07 01 00    	mov    0x10754,%edx
     33d:	8b 5d f4             	mov    -0xc(%ebp),%ebx
     340:	8d 45 d8             	lea    -0x28(%ebp),%eax
     343:	83 ec 0c             	sub    $0xc,%esp
     346:	52                   	push   %edx
     347:	ff 35 08 3f 01 00    	pushl  0x13f08
     34d:	ff 35 04 3f 01 00    	pushl  0x13f04
     353:	ff 35 00 3f 01 00    	pushl  0x13f00
     359:	50                   	push   %eax
     35a:	e8 8b 0c 00 00       	call   fea <getPos>
     35f:	83 c4 1c             	add    $0x1c,%esp
     362:	8b 45 d8             	mov    -0x28(%ebp),%eax
     365:	89 43 18             	mov    %eax,0x18(%ebx)
     368:	8b 45 dc             	mov    -0x24(%ebp),%eax
     36b:	89 43 1c             	mov    %eax,0x1c(%ebx)
     36e:	8b 45 e0             	mov    -0x20(%ebp),%eax
     371:	89 43 20             	mov    %eax,0x20(%ebx)
     374:	8b 45 e4             	mov    -0x1c(%ebp),%eax
     377:	89 43 24             	mov    %eax,0x24(%ebx)
	temp->next = fileItemList;
     37a:	8b 15 50 07 01 00    	mov    0x10750,%edx
     380:	8b 45 f4             	mov    -0xc(%ebp),%eax
     383:	89 50 2c             	mov    %edx,0x2c(%eax)
	temp->chosen = 0;
     386:	8b 45 f4             	mov    -0xc(%ebp),%eax
     389:	c7 40 28 00 00 00 00 	movl   $0x0,0x28(%eax)
	fileItemList = temp;
     390:	8b 45 f4             	mov    -0xc(%ebp),%eax
     393:	a3 50 07 01 00       	mov    %eax,0x10750
}
     398:	8b 5d fc             	mov    -0x4(%ebp),%ebx
     39b:	c9                   	leave  
     39c:	c3                   	ret    

0000039d <freeFileItemList>:

void freeFileItemList() {
     39d:	55                   	push   %ebp
     39e:	89 e5                	mov    %esp,%ebp
     3a0:	83 ec 18             	sub    $0x18,%esp
	struct fileItem *p, *temp;
	p = fileItemList;
     3a3:	a1 50 07 01 00       	mov    0x10750,%eax
     3a8:	89 45 f4             	mov    %eax,-0xc(%ebp)
	while (p != 0) {
     3ab:	eb 2f                	jmp    3dc <freeFileItemList+0x3f>
		temp = p;
     3ad:	8b 45 f4             	mov    -0xc(%ebp),%eax
     3b0:	89 45 f0             	mov    %eax,-0x10(%ebp)
		p = p->next;
     3b3:	8b 45 f4             	mov    -0xc(%ebp),%eax
     3b6:	8b 40 2c             	mov    0x2c(%eax),%eax
     3b9:	89 45 f4             	mov    %eax,-0xc(%ebp)
		free(temp->name);
     3bc:	8b 45 f0             	mov    -0x10(%ebp),%eax
     3bf:	8b 40 14             	mov    0x14(%eax),%eax
     3c2:	83 ec 0c             	sub    $0xc,%esp
     3c5:	50                   	push   %eax
     3c6:	e8 5e 4f 00 00       	call   5329 <free>
     3cb:	83 c4 10             	add    $0x10,%esp
		free(temp);
     3ce:	83 ec 0c             	sub    $0xc,%esp
     3d1:	ff 75 f0             	pushl  -0x10(%ebp)
     3d4:	e8 50 4f 00 00       	call   5329 <free>
     3d9:	83 c4 10             	add    $0x10,%esp
}

void freeFileItemList() {
	struct fileItem *p, *temp;
	p = fileItemList;
	while (p != 0) {
     3dc:	83 7d f4 00          	cmpl   $0x0,-0xc(%ebp)
     3e0:	75 cb                	jne    3ad <freeFileItemList+0x10>
		temp = p;
		p = p->next;
		free(temp->name);
		free(temp);
	}
	fileItemList = 0;
     3e2:	c7 05 50 07 01 00 00 	movl   $0x0,0x10750
     3e9:	00 00 00 
}
     3ec:	c9                   	leave  
     3ed:	c3                   	ret    

000003ee <fmtname>:

// 文件信息相关操作
char* fmtname(char *path) {
     3ee:	55                   	push   %ebp
     3ef:	89 e5                	mov    %esp,%ebp
     3f1:	83 ec 18             	sub    $0x18,%esp
	//static char buf[DIRSIZ+1];
	char *p;

	// Find first character after last slash.
	for (p = path + strlen(path); p >= path && *p != '/'; p--)
     3f4:	83 ec 0c             	sub    $0xc,%esp
     3f7:	ff 75 08             	pushl  0x8(%ebp)
     3fa:	e8 fc 49 00 00       	call   4dfb <strlen>
     3ff:	83 c4 10             	add    $0x10,%esp
     402:	89 c2                	mov    %eax,%edx
     404:	8b 45 08             	mov    0x8(%ebp),%eax
     407:	01 d0                	add    %edx,%eax
     409:	89 45 f4             	mov    %eax,-0xc(%ebp)
     40c:	eb 04                	jmp    412 <fmtname+0x24>
     40e:	83 6d f4 01          	subl   $0x1,-0xc(%ebp)
     412:	8b 45 f4             	mov    -0xc(%ebp),%eax
     415:	3b 45 08             	cmp    0x8(%ebp),%eax
     418:	72 0a                	jb     424 <fmtname+0x36>
     41a:	8b 45 f4             	mov    -0xc(%ebp),%eax
     41d:	0f b6 00             	movzbl (%eax),%eax
     420:	3c 2f                	cmp    $0x2f,%al
     422:	75 ea                	jne    40e <fmtname+0x20>
		;
	p++;
     424:	83 45 f4 01          	addl   $0x1,-0xc(%ebp)

	return p;
     428:	8b 45 f4             	mov    -0xc(%ebp),%eax
}
     42b:	c9                   	leave  
     42c:	c3                   	ret    

0000042d <isListable>:

int isListable(char *name, short type) {
     42d:	55                   	push   %ebp
     42e:	89 e5                	mov    %esp,%ebp
     430:	83 ec 14             	sub    $0x14,%esp
     433:	8b 45 0c             	mov    0xc(%ebp),%eax
     436:	66 89 45 ec          	mov    %ax,-0x14(%ebp)
	char *p = name;
     43a:	8b 45 08             	mov    0x8(%ebp),%eax
     43d:	89 45 fc             	mov    %eax,-0x4(%ebp)
	if (*p == '.') return 0;
     440:	8b 45 fc             	mov    -0x4(%ebp),%eax
     443:	0f b6 00             	movzbl (%eax),%eax
     446:	3c 2e                	cmp    $0x2e,%al
     448:	75 07                	jne    451 <isListable+0x24>
     44a:	b8 00 00 00 00       	mov    $0x0,%eax
     44f:	eb 34                	jmp    485 <isListable+0x58>
	if (type == T_DIR) return 1;
     451:	66 83 7d ec 01       	cmpw   $0x1,-0x14(%ebp)
     456:	75 07                	jne    45f <isListable+0x32>
     458:	b8 01 00 00 00       	mov    $0x1,%eax
     45d:	eb 26                	jmp    485 <isListable+0x58>
	while (*p != 0) {
     45f:	eb 15                	jmp    476 <isListable+0x49>
		if (*p == '.')
     461:	8b 45 fc             	mov    -0x4(%ebp),%eax
     464:	0f b6 00             	movzbl (%eax),%eax
     467:	3c 2e                	cmp    $0x2e,%al
     469:	75 07                	jne    472 <isListable+0x45>
			return 1;
     46b:	b8 01 00 00 00       	mov    $0x1,%eax
     470:	eb 13                	jmp    485 <isListable+0x58>
		p++;
     472:	83 45 fc 01          	addl   $0x1,-0x4(%ebp)

int isListable(char *name, short type) {
	char *p = name;
	if (*p == '.') return 0;
	if (type == T_DIR) return 1;
	while (*p != 0) {
     476:	8b 45 fc             	mov    -0x4(%ebp),%eax
     479:	0f b6 00             	movzbl (%eax),%eax
     47c:	84 c0                	test   %al,%al
     47e:	75 e1                	jne    461 <isListable+0x34>
		if (*p == '.')
			return 1;
		p++;
	}
	return 0;
     480:	b8 00 00 00 00       	mov    $0x0,%eax
}
     485:	c9                   	leave  
     486:	c3                   	ret    

00000487 <list>:

void list(char *path) {
     487:	55                   	push   %ebp
     488:	89 e5                	mov    %esp,%ebp
     48a:	57                   	push   %edi
     48b:	56                   	push   %esi
     48c:	53                   	push   %ebx
     48d:	81 ec 4c 02 00 00    	sub    $0x24c,%esp
	char buf[512], *p;
	int fd;
	struct dirent de;
	struct stat st;

	itemCounter = 0;
     493:	c7 05 54 07 01 00 00 	movl   $0x0,0x10754
     49a:	00 00 00 
	if ((fd = open(path, 0)) < 0) {
     49d:	83 ec 08             	sub    $0x8,%esp
     4a0:	6a 00                	push   $0x0
     4a2:	ff 75 08             	pushl  0x8(%ebp)
     4a5:	e8 52 4b 00 00       	call   4ffc <open>
     4aa:	83 c4 10             	add    $0x10,%esp
     4ad:	89 45 e4             	mov    %eax,-0x1c(%ebp)
     4b0:	83 7d e4 00          	cmpl   $0x0,-0x1c(%ebp)
     4b4:	79 1a                	jns    4d0 <list+0x49>
		printf(2, "ls: cannot open %s\n", path);
     4b6:	83 ec 04             	sub    $0x4,%esp
     4b9:	ff 75 08             	pushl  0x8(%ebp)
     4bc:	68 80 b8 00 00       	push   $0xb880
     4c1:	6a 02                	push   $0x2
     4c3:	e8 d1 4c 00 00       	call   5199 <printf>
     4c8:	83 c4 10             	add    $0x10,%esp
		return;
     4cb:	e9 52 02 00 00       	jmp    722 <list+0x29b>
	}

	if (fstat(fd, &st) < 0) {
     4d0:	83 ec 08             	sub    $0x8,%esp
     4d3:	8d 85 ac fd ff ff    	lea    -0x254(%ebp),%eax
     4d9:	50                   	push   %eax
     4da:	ff 75 e4             	pushl  -0x1c(%ebp)
     4dd:	e8 32 4b 00 00       	call   5014 <fstat>
     4e2:	83 c4 10             	add    $0x10,%esp
     4e5:	85 c0                	test   %eax,%eax
     4e7:	79 28                	jns    511 <list+0x8a>
		printf(2, "ls: cannot stat %s\n", path);
     4e9:	83 ec 04             	sub    $0x4,%esp
     4ec:	ff 75 08             	pushl  0x8(%ebp)
     4ef:	68 94 b8 00 00       	push   $0xb894
     4f4:	6a 02                	push   $0x2
     4f6:	e8 9e 4c 00 00       	call   5199 <printf>
     4fb:	83 c4 10             	add    $0x10,%esp
		close(fd);
     4fe:	83 ec 0c             	sub    $0xc,%esp
     501:	ff 75 e4             	pushl  -0x1c(%ebp)
     504:	e8 db 4a 00 00       	call   4fe4 <close>
     509:	83 c4 10             	add    $0x10,%esp
		return;
     50c:	e9 11 02 00 00       	jmp    722 <list+0x29b>
	}

	switch (st.type) {
     511:	0f b7 85 ac fd ff ff 	movzwl -0x254(%ebp),%eax
     518:	98                   	cwtl   
     519:	83 f8 01             	cmp    $0x1,%eax
     51c:	74 48                	je     566 <list+0xdf>
     51e:	83 f8 02             	cmp    $0x2,%eax
     521:	0f 85 ed 01 00 00    	jne    714 <list+0x28d>
	case T_FILE:
		printf(1, "%s %d %d %d\n", fmtname(path), st.type, st.ino, st.size);
     527:	8b bd bc fd ff ff    	mov    -0x244(%ebp),%edi
     52d:	8b b5 b4 fd ff ff    	mov    -0x24c(%ebp),%esi
     533:	0f b7 85 ac fd ff ff 	movzwl -0x254(%ebp),%eax
     53a:	0f bf d8             	movswl %ax,%ebx
     53d:	83 ec 0c             	sub    $0xc,%esp
     540:	ff 75 08             	pushl  0x8(%ebp)
     543:	e8 a6 fe ff ff       	call   3ee <fmtname>
     548:	83 c4 10             	add    $0x10,%esp
     54b:	83 ec 08             	sub    $0x8,%esp
     54e:	57                   	push   %edi
     54f:	56                   	push   %esi
     550:	53                   	push   %ebx
     551:	50                   	push   %eax
     552:	68 a8 b8 00 00       	push   $0xb8a8
     557:	6a 01                	push   $0x1
     559:	e8 3b 4c 00 00       	call   5199 <printf>
     55e:	83 c4 20             	add    $0x20,%esp
		break;
     561:	e9 ae 01 00 00       	jmp    714 <list+0x28d>

	case T_DIR:
		if (strlen(path) + 1 + DIRSIZ + 1 > sizeof buf) {
     566:	83 ec 0c             	sub    $0xc,%esp
     569:	ff 75 08             	pushl  0x8(%ebp)
     56c:	e8 8a 48 00 00       	call   4dfb <strlen>
     571:	83 c4 10             	add    $0x10,%esp
     574:	83 c0 10             	add    $0x10,%eax
     577:	3d 00 02 00 00       	cmp    $0x200,%eax
     57c:	76 17                	jbe    595 <list+0x10e>
			printf(1, "ls: path too long\n");
     57e:	83 ec 08             	sub    $0x8,%esp
     581:	68 b5 b8 00 00       	push   $0xb8b5
     586:	6a 01                	push   $0x1
     588:	e8 0c 4c 00 00       	call   5199 <printf>
     58d:	83 c4 10             	add    $0x10,%esp
			break;
     590:	e9 7f 01 00 00       	jmp    714 <list+0x28d>
		}
		strcpy(buf, path);
     595:	83 ec 08             	sub    $0x8,%esp
     598:	ff 75 08             	pushl  0x8(%ebp)
     59b:	8d 85 d0 fd ff ff    	lea    -0x230(%ebp),%eax
     5a1:	50                   	push   %eax
     5a2:	e8 e5 47 00 00       	call   4d8c <strcpy>
     5a7:	83 c4 10             	add    $0x10,%esp
		p = buf + strlen(buf);
     5aa:	83 ec 0c             	sub    $0xc,%esp
     5ad:	8d 85 d0 fd ff ff    	lea    -0x230(%ebp),%eax
     5b3:	50                   	push   %eax
     5b4:	e8 42 48 00 00       	call   4dfb <strlen>
     5b9:	83 c4 10             	add    $0x10,%esp
     5bc:	89 c2                	mov    %eax,%edx
     5be:	8d 85 d0 fd ff ff    	lea    -0x230(%ebp),%eax
     5c4:	01 d0                	add    %edx,%eax
     5c6:	89 45 e0             	mov    %eax,-0x20(%ebp)
		*p++ = '/';
     5c9:	8b 45 e0             	mov    -0x20(%ebp),%eax
     5cc:	8d 50 01             	lea    0x1(%eax),%edx
     5cf:	89 55 e0             	mov    %edx,-0x20(%ebp)
     5d2:	c6 00 2f             	movb   $0x2f,(%eax)
		while (read(fd, &de, sizeof(de)) == sizeof(de)) {
     5d5:	e9 19 01 00 00       	jmp    6f3 <list+0x26c>
			if (de.inum == 0)
     5da:	0f b7 85 c0 fd ff ff 	movzwl -0x240(%ebp),%eax
     5e1:	66 85 c0             	test   %ax,%ax
     5e4:	75 05                	jne    5eb <list+0x164>
				continue;
     5e6:	e9 08 01 00 00       	jmp    6f3 <list+0x26c>
			memmove(p, de.name, DIRSIZ);
     5eb:	83 ec 04             	sub    $0x4,%esp
     5ee:	6a 0e                	push   $0xe
     5f0:	8d 85 c0 fd ff ff    	lea    -0x240(%ebp),%eax
     5f6:	83 c0 02             	add    $0x2,%eax
     5f9:	50                   	push   %eax
     5fa:	ff 75 e0             	pushl  -0x20(%ebp)
     5fd:	e8 75 49 00 00       	call   4f77 <memmove>
     602:	83 c4 10             	add    $0x10,%esp
			p[DIRSIZ] = 0;
     605:	8b 45 e0             	mov    -0x20(%ebp),%eax
     608:	83 c0 0e             	add    $0xe,%eax
     60b:	c6 00 00             	movb   $0x0,(%eax)
			if (stat(buf, &st) < 0) {
     60e:	83 ec 08             	sub    $0x8,%esp
     611:	8d 85 ac fd ff ff    	lea    -0x254(%ebp),%eax
     617:	50                   	push   %eax
     618:	8d 85 d0 fd ff ff    	lea    -0x230(%ebp),%eax
     61e:	50                   	push   %eax
     61f:	e8 b9 48 00 00       	call   4edd <stat>
     624:	83 c4 10             	add    $0x10,%esp
     627:	85 c0                	test   %eax,%eax
     629:	79 1e                	jns    649 <list+0x1c2>
				printf(1, "ls: cannot stat %s\n", buf);
     62b:	83 ec 04             	sub    $0x4,%esp
     62e:	8d 85 d0 fd ff ff    	lea    -0x230(%ebp),%eax
     634:	50                   	push   %eax
     635:	68 94 b8 00 00       	push   $0xb894
     63a:	6a 01                	push   $0x1
     63c:	e8 58 4b 00 00       	call   5199 <printf>
     641:	83 c4 10             	add    $0x10,%esp
				continue;
     644:	e9 aa 00 00 00       	jmp    6f3 <list+0x26c>
			}
			if (isListable(fmtname(buf), st.type)) {
     649:	0f b7 85 ac fd ff ff 	movzwl -0x254(%ebp),%eax
     650:	0f bf d8             	movswl %ax,%ebx
     653:	83 ec 0c             	sub    $0xc,%esp
     656:	8d 85 d0 fd ff ff    	lea    -0x230(%ebp),%eax
     65c:	50                   	push   %eax
     65d:	e8 8c fd ff ff       	call   3ee <fmtname>
     662:	83 c4 10             	add    $0x10,%esp
     665:	83 ec 08             	sub    $0x8,%esp
     668:	53                   	push   %ebx
     669:	50                   	push   %eax
     66a:	e8 be fd ff ff       	call   42d <isListable>
     66f:	83 c4 10             	add    $0x10,%esp
     672:	85 c0                	test   %eax,%eax
     674:	74 7d                	je     6f3 <list+0x26c>
				addFileItem(st, fmtname(buf), getPos(context, itemCounter));
     676:	8b 15 54 07 01 00    	mov    0x10754,%edx
     67c:	8d 45 d0             	lea    -0x30(%ebp),%eax
     67f:	83 ec 0c             	sub    $0xc,%esp
     682:	52                   	push   %edx
     683:	ff 35 08 3f 01 00    	pushl  0x13f08
     689:	ff 35 04 3f 01 00    	pushl  0x13f04
     68f:	ff 35 00 3f 01 00    	pushl  0x13f00
     695:	50                   	push   %eax
     696:	e8 4f 09 00 00       	call   fea <getPos>
     69b:	83 c4 1c             	add    $0x1c,%esp
     69e:	83 ec 0c             	sub    $0xc,%esp
     6a1:	8d 85 d0 fd ff ff    	lea    -0x230(%ebp),%eax
     6a7:	50                   	push   %eax
     6a8:	e8 41 fd ff ff       	call   3ee <fmtname>
     6ad:	83 c4 10             	add    $0x10,%esp
     6b0:	83 ec 08             	sub    $0x8,%esp
     6b3:	ff 75 dc             	pushl  -0x24(%ebp)
     6b6:	ff 75 d8             	pushl  -0x28(%ebp)
     6b9:	ff 75 d4             	pushl  -0x2c(%ebp)
     6bc:	ff 75 d0             	pushl  -0x30(%ebp)
     6bf:	50                   	push   %eax
     6c0:	ff b5 bc fd ff ff    	pushl  -0x244(%ebp)
     6c6:	ff b5 b8 fd ff ff    	pushl  -0x248(%ebp)
     6cc:	ff b5 b4 fd ff ff    	pushl  -0x24c(%ebp)
     6d2:	ff b5 b0 fd ff ff    	pushl  -0x250(%ebp)
     6d8:	ff b5 ac fd ff ff    	pushl  -0x254(%ebp)
     6de:	e8 f3 fb ff ff       	call   2d6 <addFileItem>
     6e3:	83 c4 30             	add    $0x30,%esp
				itemCounter++;
     6e6:	a1 54 07 01 00       	mov    0x10754,%eax
     6eb:	83 c0 01             	add    $0x1,%eax
     6ee:	a3 54 07 01 00       	mov    %eax,0x10754
			break;
		}
		strcpy(buf, path);
		p = buf + strlen(buf);
		*p++ = '/';
		while (read(fd, &de, sizeof(de)) == sizeof(de)) {
     6f3:	83 ec 04             	sub    $0x4,%esp
     6f6:	6a 10                	push   $0x10
     6f8:	8d 85 c0 fd ff ff    	lea    -0x240(%ebp),%eax
     6fe:	50                   	push   %eax
     6ff:	ff 75 e4             	pushl  -0x1c(%ebp)
     702:	e8 cd 48 00 00       	call   4fd4 <read>
     707:	83 c4 10             	add    $0x10,%esp
     70a:	83 f8 10             	cmp    $0x10,%eax
     70d:	0f 84 c7 fe ff ff    	je     5da <list+0x153>
			if (isListable(fmtname(buf), st.type)) {
				addFileItem(st, fmtname(buf), getPos(context, itemCounter));
				itemCounter++;
			}
		}
		break;
     713:	90                   	nop
	}
	close(fd);
     714:	83 ec 0c             	sub    $0xc,%esp
     717:	ff 75 e4             	pushl  -0x1c(%ebp)
     71a:	e8 c5 48 00 00       	call   4fe4 <close>
     71f:	83 c4 10             	add    $0x10,%esp
}
     722:	8d 65 f4             	lea    -0xc(%ebp),%esp
     725:	5b                   	pop    %ebx
     726:	5e                   	pop    %esi
     727:	5f                   	pop    %edi
     728:	5d                   	pop    %ebp
     729:	c3                   	ret    

0000072a <drawItem>:
#define FILE_ICON_BIG 0
#define FILE_ICON_SMALL 1
#define FOLDER_ICON_BIG 2
#define FOLDER_ICON_SMALL 3

void drawItem(Context context, char *name, struct stat st, Rect rect, int chosen) {
     72a:	55                   	push   %ebp
     72b:	89 e5                	mov    %esp,%ebp
     72d:	53                   	push   %ebx
     72e:	83 ec 14             	sub    $0x14,%esp
	//cprintf("draw finder Item: type=%d counter=%d\n", type, n);
	unsigned short nameColor;
	if (chosen == 0) 
     731:	83 7d 3c 00          	cmpl   $0x0,0x3c(%ebp)
     735:	75 08                	jne    73f <drawItem+0x15>
		nameColor = 0x0;
     737:	66 c7 45 f6 00 00    	movw   $0x0,-0xa(%ebp)
     73d:	eb 69                	jmp    7a8 <drawItem+0x7e>
	else if (chosen == 1)
     73f:	83 7d 3c 01          	cmpl   $0x1,0x3c(%ebp)
     743:	75 34                	jne    779 <drawItem+0x4f>
	{
		nameColor = 0xFFFF;
     745:	66 c7 45 f6 ff ff    	movw   $0xffff,-0xa(%ebp)
		fill_rect(context, rect.start.x, rect.start.y, rect.width, rect.height, 0x2110);
     74b:	8b 45 38             	mov    0x38(%ebp),%eax
     74e:	89 c3                	mov    %eax,%ebx
     750:	8b 45 34             	mov    0x34(%ebp),%eax
     753:	89 c1                	mov    %eax,%ecx
     755:	8b 45 30             	mov    0x30(%ebp),%eax
     758:	89 c2                	mov    %eax,%edx
     75a:	8b 45 2c             	mov    0x2c(%ebp),%eax
     75d:	68 10 21 00 00       	push   $0x2110
     762:	53                   	push   %ebx
     763:	51                   	push   %ecx
     764:	52                   	push   %edx
     765:	50                   	push   %eax
     766:	ff 75 10             	pushl  0x10(%ebp)
     769:	ff 75 0c             	pushl  0xc(%ebp)
     76c:	ff 75 08             	pushl  0x8(%ebp)
     76f:	e8 14 2f 00 00       	call   3688 <fill_rect>
     774:	83 c4 20             	add    $0x20,%esp
     777:	eb 2f                	jmp    7a8 <drawItem+0x7e>
	} else
	{
		nameColor = 0xFFFF;
     779:	66 c7 45 f6 ff ff    	movw   $0xffff,-0xa(%ebp)
		fill_rect(context, rect.start.x, rect.start.y, rect.width, rect.height, 0);
     77f:	8b 45 38             	mov    0x38(%ebp),%eax
     782:	89 c3                	mov    %eax,%ebx
     784:	8b 45 34             	mov    0x34(%ebp),%eax
     787:	89 c1                	mov    %eax,%ecx
     789:	8b 45 30             	mov    0x30(%ebp),%eax
     78c:	89 c2                	mov    %eax,%edx
     78e:	8b 45 2c             	mov    0x2c(%ebp),%eax
     791:	6a 00                	push   $0x0
     793:	53                   	push   %ebx
     794:	51                   	push   %ecx
     795:	52                   	push   %edx
     796:	50                   	push   %eax
     797:	ff 75 10             	pushl  0x10(%ebp)
     79a:	ff 75 0c             	pushl  0xc(%ebp)
     79d:	ff 75 08             	pushl  0x8(%ebp)
     7a0:	e8 e3 2e 00 00       	call   3688 <fill_rect>
     7a5:	83 c4 20             	add    $0x20,%esp
	}
	if (style == ICON_STYLE) {
     7a8:	a1 04 fd 00 00       	mov    0xfd04,%eax
     7ad:	83 f8 01             	cmp    $0x1,%eax
     7b0:	0f 85 d2 00 00 00    	jne    888 <drawItem+0x15e>
		switch (st.type) {
     7b6:	0f b7 45 18          	movzwl 0x18(%ebp),%eax
     7ba:	98                   	cwtl   
     7bb:	83 f8 01             	cmp    $0x1,%eax
     7be:	74 38                	je     7f8 <drawItem+0xce>
     7c0:	83 f8 02             	cmp    $0x2,%eax
     7c3:	75 65                	jne    82a <drawItem+0x100>
		case T_FILE:
			draw_picture(context, contentRes[FILE_ICON_BIG].pic,
					rect.start.x + ICON_ITEM_OFFSET_X,
					rect.start.y + ICON_ITEM_OFFSET_Y);
     7c5:	8b 45 30             	mov    0x30(%ebp),%eax
		fill_rect(context, rect.start.x, rect.start.y, rect.width, rect.height, 0);
	}
	if (style == ICON_STYLE) {
		switch (st.type) {
		case T_FILE:
			draw_picture(context, contentRes[FILE_ICON_BIG].pic,
     7c8:	8d 50 0a             	lea    0xa(%eax),%edx
					rect.start.x + ICON_ITEM_OFFSET_X,
     7cb:	8b 45 2c             	mov    0x2c(%ebp),%eax
		fill_rect(context, rect.start.x, rect.start.y, rect.width, rect.height, 0);
	}
	if (style == ICON_STYLE) {
		switch (st.type) {
		case T_FILE:
			draw_picture(context, contentRes[FILE_ICON_BIG].pic,
     7ce:	83 c0 19             	add    $0x19,%eax
     7d1:	52                   	push   %edx
     7d2:	50                   	push   %eax
     7d3:	ff 35 70 fd 00 00    	pushl  0xfd70
     7d9:	ff 35 6c fd 00 00    	pushl  0xfd6c
     7df:	ff 35 68 fd 00 00    	pushl  0xfd68
     7e5:	ff 75 10             	pushl  0x10(%ebp)
     7e8:	ff 75 0c             	pushl  0xc(%ebp)
     7eb:	ff 75 08             	pushl  0x8(%ebp)
     7ee:	e8 9f 34 00 00       	call   3c92 <draw_picture>
     7f3:	83 c4 20             	add    $0x20,%esp
					rect.start.x + ICON_ITEM_OFFSET_X,
					rect.start.y + ICON_ITEM_OFFSET_Y);
			break;
     7f6:	eb 32                	jmp    82a <drawItem+0x100>
		case T_DIR:
			draw_picture(context, contentRes[FOLDER_ICON_BIG].pic,
					rect.start.x + ICON_ITEM_OFFSET_X,
					rect.start.y + ICON_ITEM_OFFSET_Y);
     7f8:	8b 45 30             	mov    0x30(%ebp),%eax
			draw_picture(context, contentRes[FILE_ICON_BIG].pic,
					rect.start.x + ICON_ITEM_OFFSET_X,
					rect.start.y + ICON_ITEM_OFFSET_Y);
			break;
		case T_DIR:
			draw_picture(context, contentRes[FOLDER_ICON_BIG].pic,
     7fb:	8d 50 0a             	lea    0xa(%eax),%edx
					rect.start.x + ICON_ITEM_OFFSET_X,
     7fe:	8b 45 2c             	mov    0x2c(%ebp),%eax
			draw_picture(context, contentRes[FILE_ICON_BIG].pic,
					rect.start.x + ICON_ITEM_OFFSET_X,
					rect.start.y + ICON_ITEM_OFFSET_Y);
			break;
		case T_DIR:
			draw_picture(context, contentRes[FOLDER_ICON_BIG].pic,
     801:	83 c0 19             	add    $0x19,%eax
     804:	52                   	push   %edx
     805:	50                   	push   %eax
     806:	ff 35 d8 fd 00 00    	pushl  0xfdd8
     80c:	ff 35 d4 fd 00 00    	pushl  0xfdd4
     812:	ff 35 d0 fd 00 00    	pushl  0xfdd0
     818:	ff 75 10             	pushl  0x10(%ebp)
     81b:	ff 75 0c             	pushl  0xc(%ebp)
     81e:	ff 75 08             	pushl  0x8(%ebp)
     821:	e8 6c 34 00 00       	call   3c92 <draw_picture>
     826:	83 c4 20             	add    $0x20,%esp
					rect.start.x + ICON_ITEM_OFFSET_X,
					rect.start.y + ICON_ITEM_OFFSET_Y);
			break;
     829:	90                   	nop
		}
		int indent;
		indent = ((ICON_ITEM_WIDTH / 8) - strlen(name)) * 4;
     82a:	83 ec 0c             	sub    $0xc,%esp
     82d:	ff 75 14             	pushl  0x14(%ebp)
     830:	e8 c6 45 00 00       	call   4dfb <strlen>
     835:	83 c4 10             	add    $0x10,%esp
     838:	89 c2                	mov    %eax,%edx
     83a:	b8 00 00 00 00       	mov    $0x0,%eax
     83f:	29 d0                	sub    %edx,%eax
     841:	c1 e0 02             	shl    $0x2,%eax
     844:	83 c0 30             	add    $0x30,%eax
     847:	89 45 f0             	mov    %eax,-0x10(%ebp)
		//printf(0,"indent: %d  filenamelen: %d\n", indent, strlen(name));
		if (indent < 0)
     84a:	83 7d f0 00          	cmpl   $0x0,-0x10(%ebp)
     84e:	79 07                	jns    857 <drawItem+0x12d>
			indent = 0;
     850:	c7 45 f0 00 00 00 00 	movl   $0x0,-0x10(%ebp)
		puts_str(context, name, nameColor, rect.start.x + indent,
				rect.start.y + ICON_ITEM_OFFSET_Y + ICON_HEIGHT_BIG + 10);
     857:	8b 45 30             	mov    0x30(%ebp),%eax
		int indent;
		indent = ((ICON_ITEM_WIDTH / 8) - strlen(name)) * 4;
		//printf(0,"indent: %d  filenamelen: %d\n", indent, strlen(name));
		if (indent < 0)
			indent = 0;
		puts_str(context, name, nameColor, rect.start.x + indent,
     85a:	8d 48 46             	lea    0x46(%eax),%ecx
     85d:	8b 55 2c             	mov    0x2c(%ebp),%edx
     860:	8b 45 f0             	mov    -0x10(%ebp),%eax
     863:	01 c2                	add    %eax,%edx
     865:	0f b7 45 f6          	movzwl -0xa(%ebp),%eax
     869:	83 ec 04             	sub    $0x4,%esp
     86c:	51                   	push   %ecx
     86d:	52                   	push   %edx
     86e:	50                   	push   %eax
     86f:	ff 75 14             	pushl  0x14(%ebp)
     872:	ff 75 10             	pushl  0x10(%ebp)
     875:	ff 75 0c             	pushl  0xc(%ebp)
     878:	ff 75 08             	pushl  0x8(%ebp)
     87b:	e8 63 33 00 00       	call   3be3 <puts_str>
     880:	83 c4 20             	add    $0x20,%esp
     883:	e9 e1 00 00 00       	jmp    969 <drawItem+0x23f>
				rect.start.y + ICON_ITEM_OFFSET_Y + ICON_HEIGHT_BIG + 10);
	} else {
		switch (st.type) {
     888:	0f b7 45 18          	movzwl 0x18(%ebp),%eax
     88c:	98                   	cwtl   
     88d:	83 f8 01             	cmp    $0x1,%eax
     890:	74 7b                	je     90d <drawItem+0x1e3>
     892:	83 f8 02             	cmp    $0x2,%eax
     895:	0f 85 a4 00 00 00    	jne    93f <drawItem+0x215>
		case T_FILE:
			draw_picture(context, contentRes[FILE_ICON_SMALL].pic, 
					rect.start.x + LIST_ITEM_OFFSET_X, rect.start.y + LIST_ITEM_OFFSET_Y);
     89b:	8b 45 30             	mov    0x30(%ebp),%eax
		puts_str(context, name, nameColor, rect.start.x + indent,
				rect.start.y + ICON_ITEM_OFFSET_Y + ICON_HEIGHT_BIG + 10);
	} else {
		switch (st.type) {
		case T_FILE:
			draw_picture(context, contentRes[FILE_ICON_SMALL].pic, 
     89e:	8d 50 03             	lea    0x3(%eax),%edx
					rect.start.x + LIST_ITEM_OFFSET_X, rect.start.y + LIST_ITEM_OFFSET_Y);
     8a1:	8b 45 2c             	mov    0x2c(%ebp),%eax
		puts_str(context, name, nameColor, rect.start.x + indent,
				rect.start.y + ICON_ITEM_OFFSET_Y + ICON_HEIGHT_BIG + 10);
	} else {
		switch (st.type) {
		case T_FILE:
			draw_picture(context, contentRes[FILE_ICON_SMALL].pic, 
     8a4:	83 c0 08             	add    $0x8,%eax
     8a7:	52                   	push   %edx
     8a8:	50                   	push   %eax
     8a9:	ff 35 a4 fd 00 00    	pushl  0xfda4
     8af:	ff 35 a0 fd 00 00    	pushl  0xfda0
     8b5:	ff 35 9c fd 00 00    	pushl  0xfd9c
     8bb:	ff 75 10             	pushl  0x10(%ebp)
     8be:	ff 75 0c             	pushl  0xc(%ebp)
     8c1:	ff 75 08             	pushl  0x8(%ebp)
     8c4:	e8 c9 33 00 00       	call   3c92 <draw_picture>
     8c9:	83 c4 20             	add    $0x20,%esp
					rect.start.x + LIST_ITEM_OFFSET_X, rect.start.y + LIST_ITEM_OFFSET_Y);
			char *size;
			size = sizeFormat(st.size);
     8cc:	8b 45 28             	mov    0x28(%ebp),%eax
     8cf:	83 ec 0c             	sub    $0xc,%esp
     8d2:	50                   	push   %eax
     8d3:	e8 96 00 00 00       	call   96e <sizeFormat>
     8d8:	83 c4 10             	add    $0x10,%esp
     8db:	89 45 ec             	mov    %eax,-0x14(%ebp)
			puts_str(context, size, nameColor, rect.start.x + LIST_ITEM_SIZE,
					rect.start.y + LIST_ITEM_OFFSET_Y);
     8de:	8b 45 30             	mov    0x30(%ebp),%eax
		case T_FILE:
			draw_picture(context, contentRes[FILE_ICON_SMALL].pic, 
					rect.start.x + LIST_ITEM_OFFSET_X, rect.start.y + LIST_ITEM_OFFSET_Y);
			char *size;
			size = sizeFormat(st.size);
			puts_str(context, size, nameColor, rect.start.x + LIST_ITEM_SIZE,
     8e1:	8d 48 03             	lea    0x3(%eax),%ecx
     8e4:	8b 45 2c             	mov    0x2c(%ebp),%eax
     8e7:	8d 90 c8 00 00 00    	lea    0xc8(%eax),%edx
     8ed:	0f b7 45 f6          	movzwl -0xa(%ebp),%eax
     8f1:	83 ec 04             	sub    $0x4,%esp
     8f4:	51                   	push   %ecx
     8f5:	52                   	push   %edx
     8f6:	50                   	push   %eax
     8f7:	ff 75 ec             	pushl  -0x14(%ebp)
     8fa:	ff 75 10             	pushl  0x10(%ebp)
     8fd:	ff 75 0c             	pushl  0xc(%ebp)
     900:	ff 75 08             	pushl  0x8(%ebp)
     903:	e8 db 32 00 00       	call   3be3 <puts_str>
     908:	83 c4 20             	add    $0x20,%esp
					rect.start.y + LIST_ITEM_OFFSET_Y);
			break;
     90b:	eb 32                	jmp    93f <drawItem+0x215>
		case T_DIR:
			draw_picture(context, contentRes[FOLDER_ICON_SMALL].pic,
					rect.start.x + LIST_ITEM_OFFSET_X, rect.start.y + LIST_ITEM_OFFSET_Y);
     90d:	8b 45 30             	mov    0x30(%ebp),%eax
			size = sizeFormat(st.size);
			puts_str(context, size, nameColor, rect.start.x + LIST_ITEM_SIZE,
					rect.start.y + LIST_ITEM_OFFSET_Y);
			break;
		case T_DIR:
			draw_picture(context, contentRes[FOLDER_ICON_SMALL].pic,
     910:	8d 50 03             	lea    0x3(%eax),%edx
					rect.start.x + LIST_ITEM_OFFSET_X, rect.start.y + LIST_ITEM_OFFSET_Y);
     913:	8b 45 2c             	mov    0x2c(%ebp),%eax
			size = sizeFormat(st.size);
			puts_str(context, size, nameColor, rect.start.x + LIST_ITEM_SIZE,
					rect.start.y + LIST_ITEM_OFFSET_Y);
			break;
		case T_DIR:
			draw_picture(context, contentRes[FOLDER_ICON_SMALL].pic,
     916:	83 c0 08             	add    $0x8,%eax
     919:	52                   	push   %edx
     91a:	50                   	push   %eax
     91b:	ff 35 0c fe 00 00    	pushl  0xfe0c
     921:	ff 35 08 fe 00 00    	pushl  0xfe08
     927:	ff 35 04 fe 00 00    	pushl  0xfe04
     92d:	ff 75 10             	pushl  0x10(%ebp)
     930:	ff 75 0c             	pushl  0xc(%ebp)
     933:	ff 75 08             	pushl  0x8(%ebp)
     936:	e8 57 33 00 00       	call   3c92 <draw_picture>
     93b:	83 c4 20             	add    $0x20,%esp
					rect.start.x + LIST_ITEM_OFFSET_X, rect.start.y + LIST_ITEM_OFFSET_Y);
			break;
     93e:	90                   	nop
		}
		puts_str(context, name, nameColor, rect.start.x + LIST_ITEM_FILENAME,
				rect.start.y + LIST_ITEM_OFFSET_Y);
     93f:	8b 45 30             	mov    0x30(%ebp),%eax
		case T_DIR:
			draw_picture(context, contentRes[FOLDER_ICON_SMALL].pic,
					rect.start.x + LIST_ITEM_OFFSET_X, rect.start.y + LIST_ITEM_OFFSET_Y);
			break;
		}
		puts_str(context, name, nameColor, rect.start.x + LIST_ITEM_FILENAME,
     942:	8d 48 03             	lea    0x3(%eax),%ecx
     945:	8b 45 2c             	mov    0x2c(%ebp),%eax
     948:	8d 50 28             	lea    0x28(%eax),%edx
     94b:	0f b7 45 f6          	movzwl -0xa(%ebp),%eax
     94f:	83 ec 04             	sub    $0x4,%esp
     952:	51                   	push   %ecx
     953:	52                   	push   %edx
     954:	50                   	push   %eax
     955:	ff 75 14             	pushl  0x14(%ebp)
     958:	ff 75 10             	pushl  0x10(%ebp)
     95b:	ff 75 0c             	pushl  0xc(%ebp)
     95e:	ff 75 08             	pushl  0x8(%ebp)
     961:	e8 7d 32 00 00       	call   3be3 <puts_str>
     966:	83 c4 20             	add    $0x20,%esp
				rect.start.y + LIST_ITEM_OFFSET_Y);
	}
}
     969:	8b 5d fc             	mov    -0x4(%ebp),%ebx
     96c:	c9                   	leave  
     96d:	c3                   	ret    

0000096e <sizeFormat>:

char *sizeFormat(uint size){
     96e:	55                   	push   %ebp
     96f:	89 e5                	mov    %esp,%ebp
     971:	53                   	push   %ebx
     972:	83 ec 14             	sub    $0x14,%esp
	char* result = (char *) malloc(12 * sizeof(char));
     975:	83 ec 0c             	sub    $0xc,%esp
     978:	6a 0c                	push   $0xc
     97a:	e8 eb 4a 00 00       	call   546a <malloc>
     97f:	83 c4 10             	add    $0x10,%esp
     982:	89 45 f0             	mov    %eax,-0x10(%ebp)
	int n = 0;
     985:	c7 45 f4 00 00 00 00 	movl   $0x0,-0xc(%ebp)
	if (size > 0x400) 
     98c:	81 7d 08 00 04 00 00 	cmpl   $0x400,0x8(%ebp)
     993:	0f 86 8b 00 00 00    	jbe    a24 <sizeFormat+0xb6>
	{
		size = size / (0x400);
     999:	8b 45 08             	mov    0x8(%ebp),%eax
     99c:	c1 e8 0a             	shr    $0xa,%eax
     99f:	89 45 08             	mov    %eax,0x8(%ebp)
		do{
			result[n++] = (size % 10) + '0';
     9a2:	8b 45 f4             	mov    -0xc(%ebp),%eax
     9a5:	8d 50 01             	lea    0x1(%eax),%edx
     9a8:	89 55 f4             	mov    %edx,-0xc(%ebp)
     9ab:	89 c2                	mov    %eax,%edx
     9ad:	8b 45 f0             	mov    -0x10(%ebp),%eax
     9b0:	8d 1c 02             	lea    (%edx,%eax,1),%ebx
     9b3:	8b 4d 08             	mov    0x8(%ebp),%ecx
     9b6:	ba cd cc cc cc       	mov    $0xcccccccd,%edx
     9bb:	89 c8                	mov    %ecx,%eax
     9bd:	f7 e2                	mul    %edx
     9bf:	c1 ea 03             	shr    $0x3,%edx
     9c2:	89 d0                	mov    %edx,%eax
     9c4:	c1 e0 02             	shl    $0x2,%eax
     9c7:	01 d0                	add    %edx,%eax
     9c9:	01 c0                	add    %eax,%eax
     9cb:	29 c1                	sub    %eax,%ecx
     9cd:	89 ca                	mov    %ecx,%edx
     9cf:	89 d0                	mov    %edx,%eax
     9d1:	83 c0 30             	add    $0x30,%eax
     9d4:	88 03                	mov    %al,(%ebx)
			size /= 10;
     9d6:	8b 45 08             	mov    0x8(%ebp),%eax
     9d9:	ba cd cc cc cc       	mov    $0xcccccccd,%edx
     9de:	f7 e2                	mul    %edx
     9e0:	89 d0                	mov    %edx,%eax
     9e2:	c1 e8 03             	shr    $0x3,%eax
     9e5:	89 45 08             	mov    %eax,0x8(%ebp)
		}while (size!=0);
     9e8:	83 7d 08 00          	cmpl   $0x0,0x8(%ebp)
     9ec:	75 b4                	jne    9a2 <sizeFormat+0x34>
		result[n++] = 'K';
     9ee:	8b 45 f4             	mov    -0xc(%ebp),%eax
     9f1:	8d 50 01             	lea    0x1(%eax),%edx
     9f4:	89 55 f4             	mov    %edx,-0xc(%ebp)
     9f7:	89 c2                	mov    %eax,%edx
     9f9:	8b 45 f0             	mov    -0x10(%ebp),%eax
     9fc:	01 d0                	add    %edx,%eax
     9fe:	c6 00 4b             	movb   $0x4b,(%eax)
		result[n++] = 'b';
     a01:	8b 45 f4             	mov    -0xc(%ebp),%eax
     a04:	8d 50 01             	lea    0x1(%eax),%edx
     a07:	89 55 f4             	mov    %edx,-0xc(%ebp)
     a0a:	89 c2                	mov    %eax,%edx
     a0c:	8b 45 f0             	mov    -0x10(%ebp),%eax
     a0f:	01 d0                	add    %edx,%eax
     a11:	c6 00 62             	movb   $0x62,(%eax)
		result[n] = 0;
     a14:	8b 55 f4             	mov    -0xc(%ebp),%edx
     a17:	8b 45 f0             	mov    -0x10(%ebp),%eax
     a1a:	01 d0                	add    %edx,%eax
     a1c:	c6 00 00             	movb   $0x0,(%eax)
     a1f:	e9 a3 00 00 00       	jmp    ac7 <sizeFormat+0x159>
	}
	else 
	{
		do{
			result[n++] = (size % 10) + '0';
     a24:	8b 45 f4             	mov    -0xc(%ebp),%eax
     a27:	8d 50 01             	lea    0x1(%eax),%edx
     a2a:	89 55 f4             	mov    %edx,-0xc(%ebp)
     a2d:	89 c2                	mov    %eax,%edx
     a2f:	8b 45 f0             	mov    -0x10(%ebp),%eax
     a32:	8d 1c 02             	lea    (%edx,%eax,1),%ebx
     a35:	8b 4d 08             	mov    0x8(%ebp),%ecx
     a38:	ba cd cc cc cc       	mov    $0xcccccccd,%edx
     a3d:	89 c8                	mov    %ecx,%eax
     a3f:	f7 e2                	mul    %edx
     a41:	c1 ea 03             	shr    $0x3,%edx
     a44:	89 d0                	mov    %edx,%eax
     a46:	c1 e0 02             	shl    $0x2,%eax
     a49:	01 d0                	add    %edx,%eax
     a4b:	01 c0                	add    %eax,%eax
     a4d:	29 c1                	sub    %eax,%ecx
     a4f:	89 ca                	mov    %ecx,%edx
     a51:	89 d0                	mov    %edx,%eax
     a53:	83 c0 30             	add    $0x30,%eax
     a56:	88 03                	mov    %al,(%ebx)
			size /= 10;
     a58:	8b 45 08             	mov    0x8(%ebp),%eax
     a5b:	ba cd cc cc cc       	mov    $0xcccccccd,%edx
     a60:	f7 e2                	mul    %edx
     a62:	89 d0                	mov    %edx,%eax
     a64:	c1 e8 03             	shr    $0x3,%eax
     a67:	89 45 08             	mov    %eax,0x8(%ebp)
		}while (size!=0);
     a6a:	83 7d 08 00          	cmpl   $0x0,0x8(%ebp)
     a6e:	75 b4                	jne    a24 <sizeFormat+0xb6>
		result[n++] = 'b';
     a70:	8b 45 f4             	mov    -0xc(%ebp),%eax
     a73:	8d 50 01             	lea    0x1(%eax),%edx
     a76:	89 55 f4             	mov    %edx,-0xc(%ebp)
     a79:	89 c2                	mov    %eax,%edx
     a7b:	8b 45 f0             	mov    -0x10(%ebp),%eax
     a7e:	01 d0                	add    %edx,%eax
     a80:	c6 00 62             	movb   $0x62,(%eax)
		result[n++] = 'y';
     a83:	8b 45 f4             	mov    -0xc(%ebp),%eax
     a86:	8d 50 01             	lea    0x1(%eax),%edx
     a89:	89 55 f4             	mov    %edx,-0xc(%ebp)
     a8c:	89 c2                	mov    %eax,%edx
     a8e:	8b 45 f0             	mov    -0x10(%ebp),%eax
     a91:	01 d0                	add    %edx,%eax
     a93:	c6 00 79             	movb   $0x79,(%eax)
		result[n++] = 't';
     a96:	8b 45 f4             	mov    -0xc(%ebp),%eax
     a99:	8d 50 01             	lea    0x1(%eax),%edx
     a9c:	89 55 f4             	mov    %edx,-0xc(%ebp)
     a9f:	89 c2                	mov    %eax,%edx
     aa1:	8b 45 f0             	mov    -0x10(%ebp),%eax
     aa4:	01 d0                	add    %edx,%eax
     aa6:	c6 00 74             	movb   $0x74,(%eax)
		result[n++] = 'e';
     aa9:	8b 45 f4             	mov    -0xc(%ebp),%eax
     aac:	8d 50 01             	lea    0x1(%eax),%edx
     aaf:	89 55 f4             	mov    %edx,-0xc(%ebp)
     ab2:	89 c2                	mov    %eax,%edx
     ab4:	8b 45 f0             	mov    -0x10(%ebp),%eax
     ab7:	01 d0                	add    %edx,%eax
     ab9:	c6 00 65             	movb   $0x65,(%eax)
		result[n] = 0;
     abc:	8b 55 f4             	mov    -0xc(%ebp),%edx
     abf:	8b 45 f0             	mov    -0x10(%ebp),%eax
     ac2:	01 d0                	add    %edx,%eax
     ac4:	c6 00 00             	movb   $0x0,(%eax)
	}
	return result;
     ac7:	8b 45 f0             	mov    -0x10(%ebp),%eax
}
     aca:	8b 5d fc             	mov    -0x4(%ebp),%ebx
     acd:	c9                   	leave  
     ace:	c3                   	ret    

00000acf <drawFinderWnd>:
		10 * BUTTON_WIDTH + 100, TOPBAR_HEIGHT + TOOLSBAR_HEIGHT
				- (BUTTON_HEIGHT + 3) }, { "rename.bmp",
		2 * BUTTON_WIDTH + 7, TOPBAR_HEIGHT + TOOLSBAR_HEIGHT
				- (BUTTON_HEIGHT + 3) }  };

void drawFinderWnd(Context context) {
     acf:	55                   	push   %ebp
     ad0:	89 e5                	mov    %esp,%ebp
     ad2:	83 ec 08             	sub    $0x8,%esp
//	fill_rect(context, 0, 0, context.width, context.height, 0xFFFF);
	
	draw_line(context, 0, 0, context.width - 1, 0, BORDERLINE_COLOR);
     ad5:	8b 45 0c             	mov    0xc(%ebp),%eax
     ad8:	83 e8 01             	sub    $0x1,%eax
     adb:	6a 00                	push   $0x0
     add:	6a 00                	push   $0x0
     adf:	50                   	push   %eax
     ae0:	6a 00                	push   $0x0
     ae2:	6a 00                	push   $0x0
     ae4:	ff 75 10             	pushl  0x10(%ebp)
     ae7:	ff 75 0c             	pushl  0xc(%ebp)
     aea:	ff 75 08             	pushl  0x8(%ebp)
     aed:	e8 5c 32 00 00       	call   3d4e <draw_line>
     af2:	83 c4 20             	add    $0x20,%esp
	draw_line(context, context.width - 1, 0, context.width - 1,
			context.height - 1, BORDERLINE_COLOR);
     af5:	8b 45 10             	mov    0x10(%ebp),%eax

void drawFinderWnd(Context context) {
//	fill_rect(context, 0, 0, context.width, context.height, 0xFFFF);
	
	draw_line(context, 0, 0, context.width - 1, 0, BORDERLINE_COLOR);
	draw_line(context, context.width - 1, 0, context.width - 1,
     af8:	8d 48 ff             	lea    -0x1(%eax),%ecx
     afb:	8b 45 0c             	mov    0xc(%ebp),%eax
     afe:	8d 50 ff             	lea    -0x1(%eax),%edx
     b01:	8b 45 0c             	mov    0xc(%ebp),%eax
     b04:	83 e8 01             	sub    $0x1,%eax
     b07:	6a 00                	push   $0x0
     b09:	51                   	push   %ecx
     b0a:	52                   	push   %edx
     b0b:	6a 00                	push   $0x0
     b0d:	50                   	push   %eax
     b0e:	ff 75 10             	pushl  0x10(%ebp)
     b11:	ff 75 0c             	pushl  0xc(%ebp)
     b14:	ff 75 08             	pushl  0x8(%ebp)
     b17:	e8 32 32 00 00       	call   3d4e <draw_line>
     b1c:	83 c4 20             	add    $0x20,%esp
			context.height - 1, BORDERLINE_COLOR);
	draw_line(context, 0,
			context.height - 1, context.width - 1, context.height - 1, BORDERLINE_COLOR);
     b1f:	8b 45 10             	mov    0x10(%ebp),%eax
//	fill_rect(context, 0, 0, context.width, context.height, 0xFFFF);
	
	draw_line(context, 0, 0, context.width - 1, 0, BORDERLINE_COLOR);
	draw_line(context, context.width - 1, 0, context.width - 1,
			context.height - 1, BORDERLINE_COLOR);
	draw_line(context, 0,
     b22:	8d 48 ff             	lea    -0x1(%eax),%ecx
			context.height - 1, context.width - 1, context.height - 1, BORDERLINE_COLOR);
     b25:	8b 45 0c             	mov    0xc(%ebp),%eax
//	fill_rect(context, 0, 0, context.width, context.height, 0xFFFF);
	
	draw_line(context, 0, 0, context.width - 1, 0, BORDERLINE_COLOR);
	draw_line(context, context.width - 1, 0, context.width - 1,
			context.height - 1, BORDERLINE_COLOR);
	draw_line(context, 0,
     b28:	8d 50 ff             	lea    -0x1(%eax),%edx
			context.height - 1, context.width - 1, context.height - 1, BORDERLINE_COLOR);
     b2b:	8b 45 10             	mov    0x10(%ebp),%eax
//	fill_rect(context, 0, 0, context.width, context.height, 0xFFFF);
	
	draw_line(context, 0, 0, context.width - 1, 0, BORDERLINE_COLOR);
	draw_line(context, context.width - 1, 0, context.width - 1,
			context.height - 1, BORDERLINE_COLOR);
	draw_line(context, 0,
     b2e:	83 e8 01             	sub    $0x1,%eax
     b31:	6a 00                	push   $0x0
     b33:	51                   	push   %ecx
     b34:	52                   	push   %edx
     b35:	50                   	push   %eax
     b36:	6a 00                	push   $0x0
     b38:	ff 75 10             	pushl  0x10(%ebp)
     b3b:	ff 75 0c             	pushl  0xc(%ebp)
     b3e:	ff 75 08             	pushl  0x8(%ebp)
     b41:	e8 08 32 00 00       	call   3d4e <draw_line>
     b46:	83 c4 20             	add    $0x20,%esp
			context.height - 1, context.width - 1, context.height - 1, BORDERLINE_COLOR);
	draw_line(context, 0, context.height - 1, 0, 0, BORDERLINE_COLOR);
     b49:	8b 45 10             	mov    0x10(%ebp),%eax
     b4c:	83 e8 01             	sub    $0x1,%eax
     b4f:	6a 00                	push   $0x0
     b51:	6a 00                	push   $0x0
     b53:	6a 00                	push   $0x0
     b55:	50                   	push   %eax
     b56:	6a 00                	push   $0x0
     b58:	ff 75 10             	pushl  0x10(%ebp)
     b5b:	ff 75 0c             	pushl  0xc(%ebp)
     b5e:	ff 75 08             	pushl  0x8(%ebp)
     b61:	e8 e8 31 00 00       	call   3d4e <draw_line>
     b66:	83 c4 20             	add    $0x20,%esp
	fill_rect(context, 1, 1, context.width - 2, TOPBAR_HEIGHT + TOOLSBAR_HEIGHT,
     b69:	8b 45 0c             	mov    0xc(%ebp),%eax
     b6c:	83 e8 02             	sub    $0x2,%eax
     b6f:	68 18 c6 00 00       	push   $0xc618
     b74:	6a 46                	push   $0x46
     b76:	50                   	push   %eax
     b77:	6a 01                	push   $0x1
     b79:	6a 01                	push   $0x1
     b7b:	ff 75 10             	pushl  0x10(%ebp)
     b7e:	ff 75 0c             	pushl  0xc(%ebp)
     b81:	ff 75 08             	pushl  0x8(%ebp)
     b84:	e8 ff 2a 00 00       	call   3688 <fill_rect>
     b89:	83 c4 20             	add    $0x20,%esp
			TOOLSBAR_COLOR);
	puts_str(context, currentPath, 0, 42, 3);
     b8c:	83 ec 04             	sub    $0x4,%esp
     b8f:	6a 03                	push   $0x3
     b91:	6a 2a                	push   $0x2a
     b93:	6a 00                	push   $0x0
     b95:	68 40 3f 01 00       	push   $0x13f40
     b9a:	ff 75 10             	pushl  0x10(%ebp)
     b9d:	ff 75 0c             	pushl  0xc(%ebp)
     ba0:	ff 75 08             	pushl  0x8(%ebp)
     ba3:	e8 3b 30 00 00       	call   3be3 <puts_str>
     ba8:	83 c4 20             	add    $0x20,%esp
	//printf(0, "drawing window\n");
	draw_iconlist(context, wndRes, sizeof(wndRes) / sizeof(ICON));
     bab:	83 ec 0c             	sub    $0xc,%esp
     bae:	6a 0f                	push   $0xf
     bb0:	68 40 fe 00 00       	push   $0xfe40
     bb5:	ff 75 10             	pushl  0x10(%ebp)
     bb8:	ff 75 0c             	pushl  0xc(%ebp)
     bbb:	ff 75 08             	pushl  0x8(%ebp)
     bbe:	e8 50 34 00 00       	call   4013 <draw_iconlist>
     bc3:	83 c4 20             	add    $0x20,%esp
	draw_searchbox();
     bc6:	e8 cf f4 ff ff       	call   9a <draw_searchbox>
	puts_str(context, keyContent.content, 0, 10 * BUTTON_WIDTH + 100, TOPBAR_HEIGHT + TOOLSBAR_HEIGHT
     bcb:	83 ec 04             	sub    $0x4,%esp
     bce:	6a 28                	push   $0x28
     bd0:	68 a4 01 00 00       	push   $0x1a4
     bd5:	6a 00                	push   $0x0
     bd7:	68 0c 3f 01 00       	push   $0x13f0c
     bdc:	ff 75 10             	pushl  0x10(%ebp)
     bdf:	ff 75 0c             	pushl  0xc(%ebp)
     be2:	ff 75 08             	pushl  0x8(%ebp)
     be5:	e8 f9 2f 00 00       	call   3be3 <puts_str>
     bea:	83 c4 20             	add    $0x20,%esp
				- (BUTTON_HEIGHT + 3) + 5);


}
     bed:	c9                   	leave  
     bee:	c3                   	ret    

00000bef <updateFileList>:

void updateFileList(Context context) {
     bef:	55                   	push   %ebp
     bf0:	89 e5                	mov    %esp,%ebp
     bf2:	53                   	push   %ebx
     bf3:	83 ec 24             	sub    $0x24,%esp
	struct fileItem *p, *q;
	int tempItemCounter = 0;
     bf6:	c7 45 ec 00 00 00 00 	movl   $0x0,-0x14(%ebp)
	freeFileItemList();
     bfd:	e8 9b f7 ff ff       	call   39d <freeFileItemList>
	list(".");
     c02:	83 ec 0c             	sub    $0xc,%esp
     c05:	68 c8 b8 00 00       	push   $0xb8c8
     c0a:	e8 78 f8 ff ff       	call   487 <list>
     c0f:	83 c4 10             	add    $0x10,%esp
	if (keyContent.length <= 0)
     c12:	a1 20 3f 01 00       	mov    0x13f20,%eax
     c17:	85 c0                	test   %eax,%eax
     c19:	7f 05                	jg     c20 <updateFileList+0x31>
		return;
     c1b:	e9 1d 01 00 00       	jmp    d3d <updateFileList+0x14e>
	p = fileItemList;
     c20:	a1 50 07 01 00       	mov    0x10750,%eax
     c25:	89 45 f4             	mov    %eax,-0xc(%ebp)
	q = 0;
     c28:	c7 45 f0 00 00 00 00 	movl   $0x0,-0x10(%ebp)
	while(p != 0) {
     c2f:	e9 ac 00 00 00       	jmp    ce0 <updateFileList+0xf1>
		if(!strstr(p->name, keyContent.content)) {
     c34:	8b 45 f4             	mov    -0xc(%ebp),%eax
     c37:	8b 40 14             	mov    0x14(%eax),%eax
     c3a:	83 ec 08             	sub    $0x8,%esp
     c3d:	68 0c 3f 01 00       	push   $0x13f0c
     c42:	50                   	push   %eax
     c43:	e8 b8 f3 ff ff       	call   0 <strstr>
     c48:	83 c4 10             	add    $0x10,%esp
     c4b:	85 c0                	test   %eax,%eax
     c4d:	75 7e                	jne    ccd <updateFileList+0xde>
			if(q == 0) {
     c4f:	83 7d f0 00          	cmpl   $0x0,-0x10(%ebp)
     c53:	75 37                	jne    c8c <updateFileList+0x9d>
				fileItemList = fileItemList->next;
     c55:	a1 50 07 01 00       	mov    0x10750,%eax
     c5a:	8b 40 2c             	mov    0x2c(%eax),%eax
     c5d:	a3 50 07 01 00       	mov    %eax,0x10750
				free(p->name);
     c62:	8b 45 f4             	mov    -0xc(%ebp),%eax
     c65:	8b 40 14             	mov    0x14(%eax),%eax
     c68:	83 ec 0c             	sub    $0xc,%esp
     c6b:	50                   	push   %eax
     c6c:	e8 b8 46 00 00       	call   5329 <free>
     c71:	83 c4 10             	add    $0x10,%esp
				free(p);
     c74:	83 ec 0c             	sub    $0xc,%esp
     c77:	ff 75 f4             	pushl  -0xc(%ebp)
     c7a:	e8 aa 46 00 00       	call   5329 <free>
     c7f:	83 c4 10             	add    $0x10,%esp
				p = fileItemList;
     c82:	a1 50 07 01 00       	mov    0x10750,%eax
     c87:	89 45 f4             	mov    %eax,-0xc(%ebp)
     c8a:	eb 54                	jmp    ce0 <updateFileList+0xf1>
			}
			else {
				q->next = p->next;
     c8c:	8b 45 f4             	mov    -0xc(%ebp),%eax
     c8f:	8b 50 2c             	mov    0x2c(%eax),%edx
     c92:	8b 45 f0             	mov    -0x10(%ebp),%eax
     c95:	89 50 2c             	mov    %edx,0x2c(%eax)
				p->next = 0;
     c98:	8b 45 f4             	mov    -0xc(%ebp),%eax
     c9b:	c7 40 2c 00 00 00 00 	movl   $0x0,0x2c(%eax)
				free(p->name);
     ca2:	8b 45 f4             	mov    -0xc(%ebp),%eax
     ca5:	8b 40 14             	mov    0x14(%eax),%eax
     ca8:	83 ec 0c             	sub    $0xc,%esp
     cab:	50                   	push   %eax
     cac:	e8 78 46 00 00       	call   5329 <free>
     cb1:	83 c4 10             	add    $0x10,%esp
				free(p);
     cb4:	83 ec 0c             	sub    $0xc,%esp
     cb7:	ff 75 f4             	pushl  -0xc(%ebp)
     cba:	e8 6a 46 00 00       	call   5329 <free>
     cbf:	83 c4 10             	add    $0x10,%esp
				p = q->next;
     cc2:	8b 45 f0             	mov    -0x10(%ebp),%eax
     cc5:	8b 40 2c             	mov    0x2c(%eax),%eax
     cc8:	89 45 f4             	mov    %eax,-0xc(%ebp)
     ccb:	eb 13                	jmp    ce0 <updateFileList+0xf1>
			}
		}
		else {
			tempItemCounter++;
     ccd:	83 45 ec 01          	addl   $0x1,-0x14(%ebp)
			q = p;
     cd1:	8b 45 f4             	mov    -0xc(%ebp),%eax
     cd4:	89 45 f0             	mov    %eax,-0x10(%ebp)
			p = p->next;
     cd7:	8b 45 f4             	mov    -0xc(%ebp),%eax
     cda:	8b 40 2c             	mov    0x2c(%eax),%eax
     cdd:	89 45 f4             	mov    %eax,-0xc(%ebp)
	list(".");
	if (keyContent.length <= 0)
		return;
	p = fileItemList;
	q = 0;
	while(p != 0) {
     ce0:	83 7d f4 00          	cmpl   $0x0,-0xc(%ebp)
     ce4:	0f 85 4a ff ff ff    	jne    c34 <updateFileList+0x45>
			tempItemCounter++;
			q = p;
			p = p->next;
		}
	}
	p = fileItemList;
     cea:	a1 50 07 01 00       	mov    0x10750,%eax
     cef:	89 45 f4             	mov    %eax,-0xc(%ebp)
	while(p != 0) {
     cf2:	eb 43                	jmp    d37 <updateFileList+0x148>
		p->pos = getPos(context, --tempItemCounter);
     cf4:	83 6d ec 01          	subl   $0x1,-0x14(%ebp)
     cf8:	8b 5d f4             	mov    -0xc(%ebp),%ebx
     cfb:	8d 45 d8             	lea    -0x28(%ebp),%eax
     cfe:	83 ec 0c             	sub    $0xc,%esp
     d01:	ff 75 ec             	pushl  -0x14(%ebp)
     d04:	ff 75 10             	pushl  0x10(%ebp)
     d07:	ff 75 0c             	pushl  0xc(%ebp)
     d0a:	ff 75 08             	pushl  0x8(%ebp)
     d0d:	50                   	push   %eax
     d0e:	e8 d7 02 00 00       	call   fea <getPos>
     d13:	83 c4 1c             	add    $0x1c,%esp
     d16:	8b 45 d8             	mov    -0x28(%ebp),%eax
     d19:	89 43 18             	mov    %eax,0x18(%ebx)
     d1c:	8b 45 dc             	mov    -0x24(%ebp),%eax
     d1f:	89 43 1c             	mov    %eax,0x1c(%ebx)
     d22:	8b 45 e0             	mov    -0x20(%ebp),%eax
     d25:	89 43 20             	mov    %eax,0x20(%ebx)
     d28:	8b 45 e4             	mov    -0x1c(%ebp),%eax
     d2b:	89 43 24             	mov    %eax,0x24(%ebx)
		p = p->next;
     d2e:	8b 45 f4             	mov    -0xc(%ebp),%eax
     d31:	8b 40 2c             	mov    0x2c(%eax),%eax
     d34:	89 45 f4             	mov    %eax,-0xc(%ebp)
			q = p;
			p = p->next;
		}
	}
	p = fileItemList;
	while(p != 0) {
     d37:	83 7d f4 00          	cmpl   $0x0,-0xc(%ebp)
     d3b:	75 b7                	jne    cf4 <updateFileList+0x105>
		p->pos = getPos(context, --tempItemCounter);
		p = p->next;
	}
}
     d3d:	8b 5d fc             	mov    -0x4(%ebp),%ebx
     d40:	c9                   	leave  
     d41:	c3                   	ret    

00000d42 <drawFinderContent>:

void drawFinderContent(Context context) {
     d42:	55                   	push   %ebp
     d43:	89 e5                	mov    %esp,%ebp
     d45:	83 ec 18             	sub    $0x18,%esp
	struct fileItem *p;
	//int tempItemCounter = 0;
	//printf(0, "listing contents\n");

	int contentTop = TOPBAR_HEIGHT + TOOLSBAR_HEIGHT;
     d48:	c7 45 f0 46 00 00 00 	movl   $0x46,-0x10(%ebp)
	if (style == LIST_STYLE) contentTop += TAGBAR_HEIGHT;
     d4f:	a1 04 fd 00 00       	mov    0xfd04,%eax
     d54:	83 f8 02             	cmp    $0x2,%eax
     d57:	75 04                	jne    d5d <drawFinderContent+0x1b>
     d59:	83 45 f0 1c          	addl   $0x1c,-0x10(%ebp)
	fill_rect(context, 1, contentTop, context.width - 2,
			context.height - (TOPBAR_HEIGHT + TOOLSBAR_HEIGHT) - 2, 0xFFFF);
     d5d:	8b 45 10             	mov    0x10(%ebp),%eax
     d60:	83 e8 48             	sub    $0x48,%eax
	//int tempItemCounter = 0;
	//printf(0, "listing contents\n");

	int contentTop = TOPBAR_HEIGHT + TOOLSBAR_HEIGHT;
	if (style == LIST_STYLE) contentTop += TAGBAR_HEIGHT;
	fill_rect(context, 1, contentTop, context.width - 2,
     d63:	89 c1                	mov    %eax,%ecx
     d65:	8b 45 0c             	mov    0xc(%ebp),%eax
     d68:	83 e8 02             	sub    $0x2,%eax
     d6b:	89 c2                	mov    %eax,%edx
     d6d:	8b 45 f0             	mov    -0x10(%ebp),%eax
     d70:	68 ff ff 00 00       	push   $0xffff
     d75:	51                   	push   %ecx
     d76:	52                   	push   %edx
     d77:	50                   	push   %eax
     d78:	6a 01                	push   $0x1
     d7a:	ff 75 10             	pushl  0x10(%ebp)
     d7d:	ff 75 0c             	pushl  0xc(%ebp)
     d80:	ff 75 08             	pushl  0x8(%ebp)
     d83:	e8 00 29 00 00       	call   3688 <fill_rect>
     d88:	83 c4 20             	add    $0x20,%esp
			context.height - (TOPBAR_HEIGHT + TOOLSBAR_HEIGHT) - 2, 0xFFFF);
	draw_line(context, 0,
				context.height - 1, context.width - 1, context.height - 1, BORDERLINE_COLOR);
     d8b:	8b 45 10             	mov    0x10(%ebp),%eax

	int contentTop = TOPBAR_HEIGHT + TOOLSBAR_HEIGHT;
	if (style == LIST_STYLE) contentTop += TAGBAR_HEIGHT;
	fill_rect(context, 1, contentTop, context.width - 2,
			context.height - (TOPBAR_HEIGHT + TOOLSBAR_HEIGHT) - 2, 0xFFFF);
	draw_line(context, 0,
     d8e:	8d 48 ff             	lea    -0x1(%eax),%ecx
				context.height - 1, context.width - 1, context.height - 1, BORDERLINE_COLOR);
     d91:	8b 45 0c             	mov    0xc(%ebp),%eax

	int contentTop = TOPBAR_HEIGHT + TOOLSBAR_HEIGHT;
	if (style == LIST_STYLE) contentTop += TAGBAR_HEIGHT;
	fill_rect(context, 1, contentTop, context.width - 2,
			context.height - (TOPBAR_HEIGHT + TOOLSBAR_HEIGHT) - 2, 0xFFFF);
	draw_line(context, 0,
     d94:	8d 50 ff             	lea    -0x1(%eax),%edx
				context.height - 1, context.width - 1, context.height - 1, BORDERLINE_COLOR);
     d97:	8b 45 10             	mov    0x10(%ebp),%eax

	int contentTop = TOPBAR_HEIGHT + TOOLSBAR_HEIGHT;
	if (style == LIST_STYLE) contentTop += TAGBAR_HEIGHT;
	fill_rect(context, 1, contentTop, context.width - 2,
			context.height - (TOPBAR_HEIGHT + TOOLSBAR_HEIGHT) - 2, 0xFFFF);
	draw_line(context, 0,
     d9a:	83 e8 01             	sub    $0x1,%eax
     d9d:	6a 00                	push   $0x0
     d9f:	51                   	push   %ecx
     da0:	52                   	push   %edx
     da1:	50                   	push   %eax
     da2:	6a 00                	push   $0x0
     da4:	ff 75 10             	pushl  0x10(%ebp)
     da7:	ff 75 0c             	pushl  0xc(%ebp)
     daa:	ff 75 08             	pushl  0x8(%ebp)
     dad:	e8 9c 2f 00 00       	call   3d4e <draw_line>
     db2:	83 c4 20             	add    $0x20,%esp
//	q = 0;
	// if (keyContent.length == 0) {
	// 	printf(0, "currently no searching pattern, so it should display all the files!\ndon't you think so?\n");
//		freeFileItemList();
//		list(".");
		p = fileItemList;
     db5:	a1 50 07 01 00       	mov    0x10750,%eax
     dba:	89 45 f4             	mov    %eax,-0xc(%ebp)
		while (p != 0) {
     dbd:	eb 4b                	jmp    e0a <drawFinderContent+0xc8>
			//printf(0, "draw item\n");
			drawItem(context, p->name, p->st, p->pos, p->chosen);
     dbf:	8b 45 f4             	mov    -0xc(%ebp),%eax
     dc2:	8b 40 28             	mov    0x28(%eax),%eax
     dc5:	8b 55 f4             	mov    -0xc(%ebp),%edx
     dc8:	8b 52 14             	mov    0x14(%edx),%edx
     dcb:	83 ec 08             	sub    $0x8,%esp
     dce:	50                   	push   %eax
     dcf:	8b 45 f4             	mov    -0xc(%ebp),%eax
     dd2:	ff 70 24             	pushl  0x24(%eax)
     dd5:	ff 70 20             	pushl  0x20(%eax)
     dd8:	ff 70 1c             	pushl  0x1c(%eax)
     ddb:	ff 70 18             	pushl  0x18(%eax)
     dde:	8b 45 f4             	mov    -0xc(%ebp),%eax
     de1:	ff 70 10             	pushl  0x10(%eax)
     de4:	ff 70 0c             	pushl  0xc(%eax)
     de7:	ff 70 08             	pushl  0x8(%eax)
     dea:	ff 70 04             	pushl  0x4(%eax)
     ded:	ff 30                	pushl  (%eax)
     def:	52                   	push   %edx
     df0:	ff 75 10             	pushl  0x10(%ebp)
     df3:	ff 75 0c             	pushl  0xc(%ebp)
     df6:	ff 75 08             	pushl  0x8(%ebp)
     df9:	e8 2c f9 ff ff       	call   72a <drawItem>
     dfe:	83 c4 40             	add    $0x40,%esp
			p = p->next;
     e01:	8b 45 f4             	mov    -0xc(%ebp),%eax
     e04:	8b 40 2c             	mov    0x2c(%eax),%eax
     e07:	89 45 f4             	mov    %eax,-0xc(%ebp)
	// if (keyContent.length == 0) {
	// 	printf(0, "currently no searching pattern, so it should display all the files!\ndon't you think so?\n");
//		freeFileItemList();
//		list(".");
		p = fileItemList;
		while (p != 0) {
     e0a:	83 7d f4 00          	cmpl   $0x0,-0xc(%ebp)
     e0e:	75 af                	jne    dbf <drawFinderContent+0x7d>
	// 		p = p->next;
			
	// 	}
	// }

	if (style == LIST_STYLE)
     e10:	a1 04 fd 00 00       	mov    0xfd04,%eax
     e15:	83 f8 02             	cmp    $0x2,%eax
     e18:	0f 85 a8 00 00 00    	jne    ec6 <drawFinderContent+0x184>
		{
			fill_rect(context, 1, TOPBAR_HEIGHT + TOOLSBAR_HEIGHT + 1, LIST_ITEM_FILENAME - 2, TAGBAR_HEIGHT, TAGBAR_COLOR);
     e1e:	68 14 a5 00 00       	push   $0xa514
     e23:	6a 1c                	push   $0x1c
     e25:	6a 26                	push   $0x26
     e27:	6a 47                	push   $0x47
     e29:	6a 01                	push   $0x1
     e2b:	ff 75 10             	pushl  0x10(%ebp)
     e2e:	ff 75 0c             	pushl  0xc(%ebp)
     e31:	ff 75 08             	pushl  0x8(%ebp)
     e34:	e8 4f 28 00 00       	call   3688 <fill_rect>
     e39:	83 c4 20             	add    $0x20,%esp
			fill_rect(context, LIST_ITEM_FILENAME, TOPBAR_HEIGHT + TOOLSBAR_HEIGHT + 1, LIST_ITEM_SIZE - LIST_ITEM_FILENAME - 1, TAGBAR_HEIGHT, TAGBAR_COLOR);
     e3c:	68 14 a5 00 00       	push   $0xa514
     e41:	6a 1c                	push   $0x1c
     e43:	68 9f 00 00 00       	push   $0x9f
     e48:	6a 47                	push   $0x47
     e4a:	6a 28                	push   $0x28
     e4c:	ff 75 10             	pushl  0x10(%ebp)
     e4f:	ff 75 0c             	pushl  0xc(%ebp)
     e52:	ff 75 08             	pushl  0x8(%ebp)
     e55:	e8 2e 28 00 00       	call   3688 <fill_rect>
     e5a:	83 c4 20             	add    $0x20,%esp
			fill_rect(context, LIST_ITEM_SIZE, TOPBAR_HEIGHT + TOOLSBAR_HEIGHT + 1, context.width - LIST_ITEM_SIZE - 1, TAGBAR_HEIGHT, TAGBAR_COLOR);
     e5d:	8b 45 0c             	mov    0xc(%ebp),%eax
     e60:	2d c9 00 00 00       	sub    $0xc9,%eax
     e65:	68 14 a5 00 00       	push   $0xa514
     e6a:	6a 1c                	push   $0x1c
     e6c:	50                   	push   %eax
     e6d:	6a 47                	push   $0x47
     e6f:	68 c8 00 00 00       	push   $0xc8
     e74:	ff 75 10             	pushl  0x10(%ebp)
     e77:	ff 75 0c             	pushl  0xc(%ebp)
     e7a:	ff 75 08             	pushl  0x8(%ebp)
     e7d:	e8 06 28 00 00       	call   3688 <fill_rect>
     e82:	83 c4 20             	add    $0x20,%esp
			puts_str(context, "Name", 0, LIST_ITEM_FILENAME + 3, TOPBAR_HEIGHT + TOOLSBAR_HEIGHT + TAGBAR_HEIGHT - 18);
     e85:	83 ec 04             	sub    $0x4,%esp
     e88:	6a 50                	push   $0x50
     e8a:	6a 2b                	push   $0x2b
     e8c:	6a 00                	push   $0x0
     e8e:	68 ca b8 00 00       	push   $0xb8ca
     e93:	ff 75 10             	pushl  0x10(%ebp)
     e96:	ff 75 0c             	pushl  0xc(%ebp)
     e99:	ff 75 08             	pushl  0x8(%ebp)
     e9c:	e8 42 2d 00 00       	call   3be3 <puts_str>
     ea1:	83 c4 20             	add    $0x20,%esp
			puts_str(context, "Size", 0, LIST_ITEM_SIZE + 3, TOPBAR_HEIGHT + TOOLSBAR_HEIGHT + TAGBAR_HEIGHT - 18);
     ea4:	83 ec 04             	sub    $0x4,%esp
     ea7:	6a 50                	push   $0x50
     ea9:	68 cb 00 00 00       	push   $0xcb
     eae:	6a 00                	push   $0x0
     eb0:	68 cf b8 00 00       	push   $0xb8cf
     eb5:	ff 75 10             	pushl  0x10(%ebp)
     eb8:	ff 75 0c             	pushl  0xc(%ebp)
     ebb:	ff 75 08             	pushl  0x8(%ebp)
     ebe:	e8 20 2d 00 00       	call   3be3 <puts_str>
     ec3:	83 c4 20             	add    $0x20,%esp
		}
}
     ec6:	c9                   	leave  
     ec7:	c3                   	ret    

00000ec8 <int2str>:

char * int2str(int i)
{
     ec8:	55                   	push   %ebp
     ec9:	89 e5                	mov    %esp,%ebp
     ecb:	53                   	push   %ebx
     ecc:	83 ec 14             	sub    $0x14,%esp
	int j;
	int n = 0;
     ecf:	c7 45 f0 00 00 00 00 	movl   $0x0,-0x10(%ebp)
	char *result = (char *)malloc(4*sizeof(char));
     ed6:	83 ec 0c             	sub    $0xc,%esp
     ed9:	6a 04                	push   $0x4
     edb:	e8 8a 45 00 00       	call   546a <malloc>
     ee0:	83 c4 10             	add    $0x10,%esp
     ee3:	89 45 ec             	mov    %eax,-0x14(%ebp)
	char *temp = (char *)malloc(4*sizeof(char));
     ee6:	83 ec 0c             	sub    $0xc,%esp
     ee9:	6a 04                	push   $0x4
     eeb:	e8 7a 45 00 00       	call   546a <malloc>
     ef0:	83 c4 10             	add    $0x10,%esp
     ef3:	89 45 e8             	mov    %eax,-0x18(%ebp)
	do{
		result[n++] = (i % 10) + '0';
     ef6:	8b 45 f0             	mov    -0x10(%ebp),%eax
     ef9:	8d 50 01             	lea    0x1(%eax),%edx
     efc:	89 55 f0             	mov    %edx,-0x10(%ebp)
     eff:	89 c2                	mov    %eax,%edx
     f01:	8b 45 ec             	mov    -0x14(%ebp),%eax
     f04:	8d 1c 02             	lea    (%edx,%eax,1),%ebx
     f07:	8b 4d 08             	mov    0x8(%ebp),%ecx
     f0a:	ba 67 66 66 66       	mov    $0x66666667,%edx
     f0f:	89 c8                	mov    %ecx,%eax
     f11:	f7 ea                	imul   %edx
     f13:	c1 fa 02             	sar    $0x2,%edx
     f16:	89 c8                	mov    %ecx,%eax
     f18:	c1 f8 1f             	sar    $0x1f,%eax
     f1b:	29 c2                	sub    %eax,%edx
     f1d:	89 d0                	mov    %edx,%eax
     f1f:	c1 e0 02             	shl    $0x2,%eax
     f22:	01 d0                	add    %edx,%eax
     f24:	01 c0                	add    %eax,%eax
     f26:	29 c1                	sub    %eax,%ecx
     f28:	89 ca                	mov    %ecx,%edx
     f2a:	89 d0                	mov    %edx,%eax
     f2c:	83 c0 30             	add    $0x30,%eax
     f2f:	88 03                	mov    %al,(%ebx)
		i /= 10;
     f31:	8b 4d 08             	mov    0x8(%ebp),%ecx
     f34:	ba 67 66 66 66       	mov    $0x66666667,%edx
     f39:	89 c8                	mov    %ecx,%eax
     f3b:	f7 ea                	imul   %edx
     f3d:	c1 fa 02             	sar    $0x2,%edx
     f40:	89 c8                	mov    %ecx,%eax
     f42:	c1 f8 1f             	sar    $0x1f,%eax
     f45:	29 c2                	sub    %eax,%edx
     f47:	89 d0                	mov    %edx,%eax
     f49:	89 45 08             	mov    %eax,0x8(%ebp)
	}while (i!=0);
     f4c:	83 7d 08 00          	cmpl   $0x0,0x8(%ebp)
     f50:	75 a4                	jne    ef6 <int2str+0x2e>
	result[n] = 0;
     f52:	8b 55 f0             	mov    -0x10(%ebp),%edx
     f55:	8b 45 ec             	mov    -0x14(%ebp),%eax
     f58:	01 d0                	add    %edx,%eax
     f5a:	c6 00 00             	movb   $0x0,(%eax)

	for (j = 0; j < n; j++)
     f5d:	c7 45 f4 00 00 00 00 	movl   $0x0,-0xc(%ebp)
     f64:	eb 21                	jmp    f87 <int2str+0xbf>
	{
		temp[j] = result[n-1-j];
     f66:	8b 55 f4             	mov    -0xc(%ebp),%edx
     f69:	8b 45 e8             	mov    -0x18(%ebp),%eax
     f6c:	01 c2                	add    %eax,%edx
     f6e:	8b 45 f0             	mov    -0x10(%ebp),%eax
     f71:	83 e8 01             	sub    $0x1,%eax
     f74:	2b 45 f4             	sub    -0xc(%ebp),%eax
     f77:	89 c1                	mov    %eax,%ecx
     f79:	8b 45 ec             	mov    -0x14(%ebp),%eax
     f7c:	01 c8                	add    %ecx,%eax
     f7e:	0f b6 00             	movzbl (%eax),%eax
     f81:	88 02                	mov    %al,(%edx)
		result[n++] = (i % 10) + '0';
		i /= 10;
	}while (i!=0);
	result[n] = 0;

	for (j = 0; j < n; j++)
     f83:	83 45 f4 01          	addl   $0x1,-0xc(%ebp)
     f87:	8b 45 f4             	mov    -0xc(%ebp),%eax
     f8a:	3b 45 f0             	cmp    -0x10(%ebp),%eax
     f8d:	7c d7                	jl     f66 <int2str+0x9e>
	{
		temp[j] = result[n-1-j];
	}
	temp[n] = 0;
     f8f:	8b 55 f0             	mov    -0x10(%ebp),%edx
     f92:	8b 45 e8             	mov    -0x18(%ebp),%eax
     f95:	01 d0                	add    %edx,%eax
     f97:	c6 00 00             	movb   $0x0,(%eax)
	free(result);
     f9a:	83 ec 0c             	sub    $0xc,%esp
     f9d:	ff 75 ec             	pushl  -0x14(%ebp)
     fa0:	e8 84 43 00 00       	call   5329 <free>
     fa5:	83 c4 10             	add    $0x10,%esp
	return temp;
     fa8:	8b 45 e8             	mov    -0x18(%ebp),%eax
}
     fab:	8b 5d fc             	mov    -0x4(%ebp),%ebx
     fae:	c9                   	leave  
     faf:	c3                   	ret    

00000fb0 <printItemList>:

void printItemList() {
     fb0:	55                   	push   %ebp
     fb1:	89 e5                	mov    %esp,%ebp
     fb3:	83 ec 18             	sub    $0x18,%esp
	struct fileItem *p;
	p = fileItemList;
     fb6:	a1 50 07 01 00       	mov    0x10750,%eax
     fbb:	89 45 f4             	mov    %eax,-0xc(%ebp)
	while (p != 0) {
     fbe:	eb 22                	jmp    fe2 <printItemList+0x32>
		printf(0, "%s\n", p->name);
     fc0:	8b 45 f4             	mov    -0xc(%ebp),%eax
     fc3:	8b 40 14             	mov    0x14(%eax),%eax
     fc6:	83 ec 04             	sub    $0x4,%esp
     fc9:	50                   	push   %eax
     fca:	68 d4 b8 00 00       	push   $0xb8d4
     fcf:	6a 00                	push   $0x0
     fd1:	e8 c3 41 00 00       	call   5199 <printf>
     fd6:	83 c4 10             	add    $0x10,%esp
		p = p->next;
     fd9:	8b 45 f4             	mov    -0xc(%ebp),%eax
     fdc:	8b 40 2c             	mov    0x2c(%eax),%eax
     fdf:	89 45 f4             	mov    %eax,-0xc(%ebp)
}

void printItemList() {
	struct fileItem *p;
	p = fileItemList;
	while (p != 0) {
     fe2:	83 7d f4 00          	cmpl   $0x0,-0xc(%ebp)
     fe6:	75 d8                	jne    fc0 <printItemList+0x10>
		printf(0, "%s\n", p->name);
		p = p->next;
	}
}
     fe8:	c9                   	leave  
     fe9:	c3                   	ret    

00000fea <getPos>:

Rect getPos(Context context, int n) {
     fea:	55                   	push   %ebp
     feb:	89 e5                	mov    %esp,%ebp
     fed:	83 ec 28             	sub    $0x28,%esp
	if (style == ICON_STYLE) {
     ff0:	a1 04 fd 00 00       	mov    0xfd04,%eax
     ff5:	83 f8 01             	cmp    $0x1,%eax
     ff8:	75 6e                	jne    1068 <getPos+0x7e>
		int m = context.width / (ICON_ITEM_WIDTH + ICON_ITEM_GAP_X);
     ffa:	8b 4d 10             	mov    0x10(%ebp),%ecx
     ffd:	ba 7f e0 07 7e       	mov    $0x7e07e07f,%edx
    1002:	89 c8                	mov    %ecx,%eax
    1004:	f7 ea                	imul   %edx
    1006:	c1 fa 06             	sar    $0x6,%edx
    1009:	89 c8                	mov    %ecx,%eax
    100b:	c1 f8 1f             	sar    $0x1f,%eax
    100e:	29 c2                	sub    %eax,%edx
    1010:	89 d0                	mov    %edx,%eax
    1012:	89 45 f4             	mov    %eax,-0xc(%ebp)
		int r = n / m;
    1015:	8b 45 18             	mov    0x18(%ebp),%eax
    1018:	99                   	cltd   
    1019:	f7 7d f4             	idivl  -0xc(%ebp)
    101c:	89 45 f0             	mov    %eax,-0x10(%ebp)
		int c = n % m;
    101f:	8b 45 18             	mov    0x18(%ebp),%eax
    1022:	99                   	cltd   
    1023:	f7 7d f4             	idivl  -0xc(%ebp)
    1026:	89 55 ec             	mov    %edx,-0x14(%ebp)
		int y_top = r * (ICON_ITEM_HEIGHT + ICON_ITEM_GAP_Y)+ TOPBAR_HEIGHT + TOOLSBAR_HEIGHT + ICON_ITEM_GAP_Y;
    1029:	8b 45 f0             	mov    -0x10(%ebp),%eax
    102c:	6b c0 73             	imul   $0x73,%eax,%eax
    102f:	83 c0 5a             	add    $0x5a,%eax
    1032:	89 45 e8             	mov    %eax,-0x18(%ebp)
		int x_left = c * (ICON_ITEM_WIDTH + ICON_ITEM_GAP_X);
    1035:	8b 45 ec             	mov    -0x14(%ebp),%eax
    1038:	01 c0                	add    %eax,%eax
    103a:	89 c2                	mov    %eax,%edx
    103c:	c1 e2 06             	shl    $0x6,%edx
    103f:	01 d0                	add    %edx,%eax
    1041:	89 45 e4             	mov    %eax,-0x1c(%ebp)
		return initRect(x_left, y_top + scrollOffset, ICON_ITEM_WIDTH,
    1044:	8b 15 40 07 01 00    	mov    0x10740,%edx
    104a:	8b 45 e8             	mov    -0x18(%ebp),%eax
    104d:	01 c2                	add    %eax,%edx
    104f:	8b 45 08             	mov    0x8(%ebp),%eax
    1052:	83 ec 0c             	sub    $0xc,%esp
    1055:	6a 5f                	push   $0x5f
    1057:	6a 64                	push   $0x64
    1059:	52                   	push   %edx
    105a:	ff 75 e4             	pushl  -0x1c(%ebp)
    105d:	50                   	push   %eax
    105e:	e8 70 37 00 00       	call   47d3 <initRect>
    1063:	83 c4 1c             	add    $0x1c,%esp
    1066:	eb 2c                	jmp    1094 <getPos+0xaa>
				ICON_ITEM_HEIGHT);
	} else {
		return initRect(0, TOPBAR_HEIGHT + TOOLSBAR_HEIGHT + TAGBAR_HEIGHT + n * (LIST_ITEM_HEIGHT + LIST_ITEM_GAP) + scrollOffset, context.width,
    1068:	8b 4d 10             	mov    0x10(%ebp),%ecx
    106b:	8b 55 18             	mov    0x18(%ebp),%edx
    106e:	89 d0                	mov    %edx,%eax
    1070:	c1 e0 05             	shl    $0x5,%eax
    1073:	29 d0                	sub    %edx,%eax
    1075:	8d 50 62             	lea    0x62(%eax),%edx
    1078:	a1 40 07 01 00       	mov    0x10740,%eax
    107d:	01 c2                	add    %eax,%edx
    107f:	8b 45 08             	mov    0x8(%ebp),%eax
    1082:	83 ec 0c             	sub    $0xc,%esp
    1085:	6a 1e                	push   $0x1e
    1087:	51                   	push   %ecx
    1088:	52                   	push   %edx
    1089:	6a 00                	push   $0x0
    108b:	50                   	push   %eax
    108c:	e8 42 37 00 00       	call   47d3 <initRect>
    1091:	83 c4 1c             	add    $0x1c,%esp
				LIST_ITEM_HEIGHT);
	}
}
    1094:	8b 45 08             	mov    0x8(%ebp),%eax
    1097:	c9                   	leave  
    1098:	c2 04 00             	ret    $0x4

0000109b <addItemEvent>:

// 事件处理相关操作
void addItemEvent(ClickableManager *cm, struct fileItem item) {
    109b:	55                   	push   %ebp
    109c:	89 e5                	mov    %esp,%ebp
    109e:	83 ec 08             	sub    $0x8,%esp
	if (style == ICON_STYLE) {
    10a1:	a1 04 fd 00 00       	mov    0xfd04,%eax
    10a6:	83 f8 01             	cmp    $0x1,%eax
    10a9:	75 0d                	jne    10b8 <addItemEvent+0x1d>
		if (item.pos.start.y < TOPBAR_HEIGHT + TOOLSBAR_HEIGHT)
    10ab:	8b 45 28             	mov    0x28(%ebp),%eax
    10ae:	83 f8 45             	cmp    $0x45,%eax
    10b1:	7f 12                	jg     10c5 <addItemEvent+0x2a>
			return;
    10b3:	e9 95 00 00 00       	jmp    114d <addItemEvent+0xb2>
	} else {
		if (item.pos.start.y < TOPBAR_HEIGHT + TOOLSBAR_HEIGHT + TAGBAR_HEIGHT)
    10b8:	8b 45 28             	mov    0x28(%ebp),%eax
    10bb:	83 f8 61             	cmp    $0x61,%eax
    10be:	7f 05                	jg     10c5 <addItemEvent+0x2a>
			return;
    10c0:	e9 88 00 00 00       	jmp    114d <addItemEvent+0xb2>
	}
	switch (item.st.type) {
    10c5:	0f b7 45 0c          	movzwl 0xc(%ebp),%eax
    10c9:	98                   	cwtl   
    10ca:	83 f8 01             	cmp    $0x1,%eax
    10cd:	74 28                	je     10f7 <addItemEvent+0x5c>
    10cf:	83 f8 02             	cmp    $0x2,%eax
    10d2:	75 67                	jne    113b <addItemEvent+0xa0>
	case T_FILE:
		createClickable(cm, item.pos, MSG_LPRESS, h_chooseFile);
    10d4:	83 ec 04             	sub    $0x4,%esp
    10d7:	68 a5 2a 00 00       	push   $0x2aa5
    10dc:	6a 02                	push   $0x2
    10de:	ff 75 30             	pushl  0x30(%ebp)
    10e1:	ff 75 2c             	pushl  0x2c(%ebp)
    10e4:	ff 75 28             	pushl  0x28(%ebp)
    10e7:	ff 75 24             	pushl  0x24(%ebp)
    10ea:	ff 75 08             	pushl  0x8(%ebp)
    10ed:	e8 c3 37 00 00       	call   48b5 <createClickable>
    10f2:	83 c4 20             	add    $0x20,%esp
		break;
    10f5:	eb 56                	jmp    114d <addItemEvent+0xb2>
	case T_DIR:
		createClickable(cm, item.pos, MSG_LPRESS, h_chooseFile);
    10f7:	83 ec 04             	sub    $0x4,%esp
    10fa:	68 a5 2a 00 00       	push   $0x2aa5
    10ff:	6a 02                	push   $0x2
    1101:	ff 75 30             	pushl  0x30(%ebp)
    1104:	ff 75 2c             	pushl  0x2c(%ebp)
    1107:	ff 75 28             	pushl  0x28(%ebp)
    110a:	ff 75 24             	pushl  0x24(%ebp)
    110d:	ff 75 08             	pushl  0x8(%ebp)
    1110:	e8 a0 37 00 00       	call   48b5 <createClickable>
    1115:	83 c4 20             	add    $0x20,%esp
		createClickable(cm, item.pos, MSG_DOUBLECLICK, h_enterDir);
    1118:	83 ec 04             	sub    $0x4,%esp
    111b:	68 7d 18 00 00       	push   $0x187d
    1120:	6a 04                	push   $0x4
    1122:	ff 75 30             	pushl  0x30(%ebp)
    1125:	ff 75 2c             	pushl  0x2c(%ebp)
    1128:	ff 75 28             	pushl  0x28(%ebp)
    112b:	ff 75 24             	pushl  0x24(%ebp)
    112e:	ff 75 08             	pushl  0x8(%ebp)
    1131:	e8 7f 37 00 00       	call   48b5 <createClickable>
    1136:	83 c4 20             	add    $0x20,%esp
		break;
    1139:	eb 12                	jmp    114d <addItemEvent+0xb2>
	default:
		printf(0, "unknown file type!");
    113b:	83 ec 08             	sub    $0x8,%esp
    113e:	68 d8 b8 00 00       	push   $0xb8d8
    1143:	6a 00                	push   $0x0
    1145:	e8 4f 40 00 00       	call   5199 <printf>
    114a:	83 c4 10             	add    $0x10,%esp
	}
}
    114d:	c9                   	leave  
    114e:	c3                   	ret    

0000114f <addListEvent>:

void addListEvent(ClickableManager *cm) {
    114f:	55                   	push   %ebp
    1150:	89 e5                	mov    %esp,%ebp
    1152:	83 ec 18             	sub    $0x18,%esp
	struct fileItem *p, *temp;
	p = fileItemList;
    1155:	a1 50 07 01 00       	mov    0x10750,%eax
    115a:	89 45 f4             	mov    %eax,-0xc(%ebp)
	while (p != 0) {
    115d:	eb 43                	jmp    11a2 <addListEvent+0x53>
		temp = p;
    115f:	8b 45 f4             	mov    -0xc(%ebp),%eax
    1162:	89 45 f0             	mov    %eax,-0x10(%ebp)
		p = p->next;
    1165:	8b 45 f4             	mov    -0xc(%ebp),%eax
    1168:	8b 40 2c             	mov    0x2c(%eax),%eax
    116b:	89 45 f4             	mov    %eax,-0xc(%ebp)
		addItemEvent(cm, *temp);
    116e:	83 ec 0c             	sub    $0xc,%esp
    1171:	8b 45 f0             	mov    -0x10(%ebp),%eax
    1174:	ff 70 2c             	pushl  0x2c(%eax)
    1177:	ff 70 28             	pushl  0x28(%eax)
    117a:	ff 70 24             	pushl  0x24(%eax)
    117d:	ff 70 20             	pushl  0x20(%eax)
    1180:	ff 70 1c             	pushl  0x1c(%eax)
    1183:	ff 70 18             	pushl  0x18(%eax)
    1186:	ff 70 14             	pushl  0x14(%eax)
    1189:	ff 70 10             	pushl  0x10(%eax)
    118c:	ff 70 0c             	pushl  0xc(%eax)
    118f:	ff 70 08             	pushl  0x8(%eax)
    1192:	ff 70 04             	pushl  0x4(%eax)
    1195:	ff 30                	pushl  (%eax)
    1197:	ff 75 08             	pushl  0x8(%ebp)
    119a:	e8 fc fe ff ff       	call   109b <addItemEvent>
    119f:	83 c4 40             	add    $0x40,%esp
}

void addListEvent(ClickableManager *cm) {
	struct fileItem *p, *temp;
	p = fileItemList;
	while (p != 0) {
    11a2:	83 7d f4 00          	cmpl   $0x0,-0xc(%ebp)
    11a6:	75 b7                	jne    115f <addListEvent+0x10>
		temp = p;
		p = p->next;
		addItemEvent(cm, *temp);
	}
}
    11a8:	c9                   	leave  
    11a9:	c3                   	ret    

000011aa <addWndEvent>:

Handler wndEvents[] = { h_closeWnd, h_empty, h_chvm2, h_chvm1, h_newFolder,
		h_newFile, h_goUp, h_deleteFile, h_scrollDown, h_scrollUp, h_cutFile, h_copyFile, h_pasteFile, h_searchbox, h_rename};

void addWndEvent(ClickableManager *cm) {
    11aa:	55                   	push   %ebp
    11ab:	89 e5                	mov    %esp,%ebp
    11ad:	57                   	push   %edi
    11ae:	56                   	push   %esi
    11af:	53                   	push   %ebx
    11b0:	83 ec 3c             	sub    $0x3c,%esp
	int i;
	int n = sizeof(wndEvents) / sizeof(Handler);
    11b3:	c7 45 e0 0f 00 00 00 	movl   $0xf,-0x20(%ebp)
	for (i = 0; i < n; i++) {
    11ba:	c7 45 e4 00 00 00 00 	movl   $0x0,-0x1c(%ebp)
    11c1:	e9 81 00 00 00       	jmp    1247 <addWndEvent+0x9d>
		createClickable(cm,
    11c6:	8b 45 e4             	mov    -0x1c(%ebp),%eax
    11c9:	8b 1c 85 60 01 01 00 	mov    0x10160(,%eax,4),%ebx
    11d0:	8b 45 e4             	mov    -0x1c(%ebp),%eax
    11d3:	6b c0 34             	imul   $0x34,%eax,%eax
    11d6:	83 c0 20             	add    $0x20,%eax
    11d9:	05 40 fe 00 00       	add    $0xfe40,%eax
    11de:	8b 78 10             	mov    0x10(%eax),%edi
    11e1:	8b 45 e4             	mov    -0x1c(%ebp),%eax
    11e4:	6b c0 34             	imul   $0x34,%eax,%eax
    11e7:	83 c0 20             	add    $0x20,%eax
    11ea:	05 40 fe 00 00       	add    $0xfe40,%eax
    11ef:	8b 70 0c             	mov    0xc(%eax),%esi
    11f2:	8b 45 e4             	mov    -0x1c(%ebp),%eax
    11f5:	6b c0 34             	imul   $0x34,%eax,%eax
    11f8:	83 c0 20             	add    $0x20,%eax
    11fb:	05 40 fe 00 00       	add    $0xfe40,%eax
    1200:	8b 48 04             	mov    0x4(%eax),%ecx
    1203:	8b 45 e4             	mov    -0x1c(%ebp),%eax
    1206:	6b c0 34             	imul   $0x34,%eax,%eax
    1209:	83 c0 20             	add    $0x20,%eax
    120c:	05 40 fe 00 00       	add    $0xfe40,%eax
    1211:	8b 10                	mov    (%eax),%edx
    1213:	8d 45 c0             	lea    -0x40(%ebp),%eax
    1216:	83 ec 0c             	sub    $0xc,%esp
    1219:	57                   	push   %edi
    121a:	56                   	push   %esi
    121b:	51                   	push   %ecx
    121c:	52                   	push   %edx
    121d:	50                   	push   %eax
    121e:	e8 b0 35 00 00       	call   47d3 <initRect>
    1223:	83 c4 1c             	add    $0x1c,%esp
    1226:	83 ec 04             	sub    $0x4,%esp
    1229:	53                   	push   %ebx
    122a:	6a 02                	push   $0x2
    122c:	ff 75 cc             	pushl  -0x34(%ebp)
    122f:	ff 75 c8             	pushl  -0x38(%ebp)
    1232:	ff 75 c4             	pushl  -0x3c(%ebp)
    1235:	ff 75 c0             	pushl  -0x40(%ebp)
    1238:	ff 75 08             	pushl  0x8(%ebp)
    123b:	e8 75 36 00 00       	call   48b5 <createClickable>
    1240:	83 c4 20             	add    $0x20,%esp
		h_newFile, h_goUp, h_deleteFile, h_scrollDown, h_scrollUp, h_cutFile, h_copyFile, h_pasteFile, h_searchbox, h_rename};

void addWndEvent(ClickableManager *cm) {
	int i;
	int n = sizeof(wndEvents) / sizeof(Handler);
	for (i = 0; i < n; i++) {
    1243:	83 45 e4 01          	addl   $0x1,-0x1c(%ebp)
    1247:	8b 45 e4             	mov    -0x1c(%ebp),%eax
    124a:	3b 45 e0             	cmp    -0x20(%ebp),%eax
    124d:	0f 8c 73 ff ff ff    	jl     11c6 <addWndEvent+0x1c>
		createClickable(cm,
				initRect(wndRes[i].position_x, wndRes[i].position_y,
						wndRes[i].pic.width, wndRes[i].pic.height), MSG_LPRESS,
				wndEvents[i]);
	}
	createClickable(cm, initRect(LIST_ITEM_FILENAME, TOPBAR_HEIGHT + TOOLSBAR_HEIGHT + 1, LIST_ITEM_SIZE - LIST_ITEM_FILENAME - 1, TAGBAR_HEIGHT), MSG_LPRESS, h_fileSortByName);
    1253:	8d 45 d0             	lea    -0x30(%ebp),%eax
    1256:	83 ec 0c             	sub    $0xc,%esp
    1259:	6a 1c                	push   $0x1c
    125b:	68 9f 00 00 00       	push   $0x9f
    1260:	6a 47                	push   $0x47
    1262:	6a 28                	push   $0x28
    1264:	50                   	push   %eax
    1265:	e8 69 35 00 00       	call   47d3 <initRect>
    126a:	83 c4 1c             	add    $0x1c,%esp
    126d:	83 ec 04             	sub    $0x4,%esp
    1270:	68 e5 12 00 00       	push   $0x12e5
    1275:	6a 02                	push   $0x2
    1277:	ff 75 dc             	pushl  -0x24(%ebp)
    127a:	ff 75 d8             	pushl  -0x28(%ebp)
    127d:	ff 75 d4             	pushl  -0x2c(%ebp)
    1280:	ff 75 d0             	pushl  -0x30(%ebp)
    1283:	ff 75 08             	pushl  0x8(%ebp)
    1286:	e8 2a 36 00 00       	call   48b5 <createClickable>
    128b:	83 c4 20             	add    $0x20,%esp
}
    128e:	8d 65 f4             	lea    -0xc(%ebp),%esp
    1291:	5b                   	pop    %ebx
    1292:	5e                   	pop    %esi
    1293:	5f                   	pop    %edi
    1294:	5d                   	pop    %ebp
    1295:	c3                   	ret    

00001296 <getFileItem>:

struct fileItem * getFileItem(Point point) {
    1296:	55                   	push   %ebp
    1297:	89 e5                	mov    %esp,%ebp
    1299:	83 ec 18             	sub    $0x18,%esp
	struct fileItem *p = fileItemList;
    129c:	a1 50 07 01 00       	mov    0x10750,%eax
    12a1:	89 45 f4             	mov    %eax,-0xc(%ebp)
	while (p != 0) {
    12a4:	eb 32                	jmp    12d8 <getFileItem+0x42>
		if (isIn(point, p->pos)) {
    12a6:	83 ec 08             	sub    $0x8,%esp
    12a9:	8b 45 f4             	mov    -0xc(%ebp),%eax
    12ac:	ff 70 24             	pushl  0x24(%eax)
    12af:	ff 70 20             	pushl  0x20(%eax)
    12b2:	ff 70 1c             	pushl  0x1c(%eax)
    12b5:	ff 70 18             	pushl  0x18(%eax)
    12b8:	ff 75 0c             	pushl  0xc(%ebp)
    12bb:	ff 75 08             	pushl  0x8(%ebp)
    12be:	e8 61 35 00 00       	call   4824 <isIn>
    12c3:	83 c4 20             	add    $0x20,%esp
    12c6:	85 c0                	test   %eax,%eax
    12c8:	74 05                	je     12cf <getFileItem+0x39>
			return p;
    12ca:	8b 45 f4             	mov    -0xc(%ebp),%eax
    12cd:	eb 14                	jmp    12e3 <getFileItem+0x4d>
		}
		p = p->next;
    12cf:	8b 45 f4             	mov    -0xc(%ebp),%eax
    12d2:	8b 40 2c             	mov    0x2c(%eax),%eax
    12d5:	89 45 f4             	mov    %eax,-0xc(%ebp)
	createClickable(cm, initRect(LIST_ITEM_FILENAME, TOPBAR_HEIGHT + TOOLSBAR_HEIGHT + 1, LIST_ITEM_SIZE - LIST_ITEM_FILENAME - 1, TAGBAR_HEIGHT), MSG_LPRESS, h_fileSortByName);
}

struct fileItem * getFileItem(Point point) {
	struct fileItem *p = fileItemList;
	while (p != 0) {
    12d8:	83 7d f4 00          	cmpl   $0x0,-0xc(%ebp)
    12dc:	75 c8                	jne    12a6 <getFileItem+0x10>
		if (isIn(point, p->pos)) {
			return p;
		}
		p = p->next;
	}
	return 0;
    12de:	b8 00 00 00 00       	mov    $0x0,%eax
}
    12e3:	c9                   	leave  
    12e4:	c3                   	ret    

000012e5 <h_fileSortByName>:

void h_fileSortByName(Point p) {
    12e5:	55                   	push   %ebp
    12e6:	89 e5                	mov    %esp,%ebp
    12e8:	83 ec 18             	sub    $0x18,%esp
	printf(0, "askjhdas\n");
    12eb:	83 ec 08             	sub    $0x8,%esp
    12ee:	68 eb b8 00 00       	push   $0xb8eb
    12f3:	6a 00                	push   $0x0
    12f5:	e8 9f 3e 00 00       	call   5199 <printf>
    12fa:	83 c4 10             	add    $0x10,%esp
	fileSortByName();
    12fd:	e8 3c ee ff ff       	call   13e <fileSortByName>
	drawFinderContent(context);
    1302:	83 ec 04             	sub    $0x4,%esp
    1305:	ff 35 08 3f 01 00    	pushl  0x13f08
    130b:	ff 35 04 3f 01 00    	pushl  0x13f04
    1311:	ff 35 00 3f 01 00    	pushl  0x13f00
    1317:	e8 26 fa ff ff       	call   d42 <drawFinderContent>
    131c:	83 c4 10             	add    $0x10,%esp
	drawFinderWnd(context);
    131f:	83 ec 04             	sub    $0x4,%esp
    1322:	ff 35 08 3f 01 00    	pushl  0x13f08
    1328:	ff 35 04 3f 01 00    	pushl  0x13f04
    132e:	ff 35 00 3f 01 00    	pushl  0x13f00
    1334:	e8 96 f7 ff ff       	call   acf <drawFinderWnd>
    1339:	83 c4 10             	add    $0x10,%esp
	deleteClickable(&cm.left_click, initRect(0, 0, 800, 600));
    133c:	8d 45 e8             	lea    -0x18(%ebp),%eax
    133f:	83 ec 0c             	sub    $0xc,%esp
    1342:	68 58 02 00 00       	push   $0x258
    1347:	68 20 03 00 00       	push   $0x320
    134c:	6a 00                	push   $0x0
    134e:	6a 00                	push   $0x0
    1350:	50                   	push   %eax
    1351:	e8 7d 34 00 00       	call   47d3 <initRect>
    1356:	83 c4 1c             	add    $0x1c,%esp
    1359:	83 ec 0c             	sub    $0xc,%esp
    135c:	ff 75 f4             	pushl  -0xc(%ebp)
    135f:	ff 75 f0             	pushl  -0x10(%ebp)
    1362:	ff 75 ec             	pushl  -0x14(%ebp)
    1365:	ff 75 e8             	pushl  -0x18(%ebp)
    1368:	68 40 40 01 00       	push   $0x14040
    136d:	e8 26 36 00 00       	call   4998 <deleteClickable>
    1372:	83 c4 20             	add    $0x20,%esp
	addWndEvent(&cm);
    1375:	83 ec 0c             	sub    $0xc,%esp
    1378:	68 40 40 01 00       	push   $0x14040
    137d:	e8 28 fe ff ff       	call   11aa <addWndEvent>
    1382:	83 c4 10             	add    $0x10,%esp
	addListEvent(&cm);
    1385:	83 ec 0c             	sub    $0xc,%esp
    1388:	68 40 40 01 00       	push   $0x14040
    138d:	e8 bd fd ff ff       	call   114f <addListEvent>
    1392:	83 c4 10             	add    $0x10,%esp
}
    1395:	c9                   	leave  
    1396:	c3                   	ret    

00001397 <h_searchbox>:

void h_searchbox(Point p) {
    1397:	55                   	push   %ebp
    1398:	89 e5                	mov    %esp,%ebp
	isSearching = 1;
    139a:	c7 05 c0 35 01 00 01 	movl   $0x1,0x135c0
    13a1:	00 00 00 
}
    13a4:	5d                   	pop    %ebp
    13a5:	c3                   	ret    

000013a6 <scrollList>:

void scrollList(int offset) {
    13a6:	55                   	push   %ebp
    13a7:	89 e5                	mov    %esp,%ebp
    13a9:	83 ec 10             	sub    $0x10,%esp
	struct fileItem *q = fileItemList;
    13ac:	a1 50 07 01 00       	mov    0x10750,%eax
    13b1:	89 45 fc             	mov    %eax,-0x4(%ebp)
	while (q != 0){
    13b4:	eb 1a                	jmp    13d0 <scrollList+0x2a>
		q->pos.start.y += offset;
    13b6:	8b 45 fc             	mov    -0x4(%ebp),%eax
    13b9:	8b 50 1c             	mov    0x1c(%eax),%edx
    13bc:	8b 45 08             	mov    0x8(%ebp),%eax
    13bf:	01 c2                	add    %eax,%edx
    13c1:	8b 45 fc             	mov    -0x4(%ebp),%eax
    13c4:	89 50 1c             	mov    %edx,0x1c(%eax)
		q = q->next;
    13c7:	8b 45 fc             	mov    -0x4(%ebp),%eax
    13ca:	8b 40 2c             	mov    0x2c(%eax),%eax
    13cd:	89 45 fc             	mov    %eax,-0x4(%ebp)
	isSearching = 1;
}

void scrollList(int offset) {
	struct fileItem *q = fileItemList;
	while (q != 0){
    13d0:	83 7d fc 00          	cmpl   $0x0,-0x4(%ebp)
    13d4:	75 e0                	jne    13b6 <scrollList+0x10>
		q->pos.start.y += offset;
		q = q->next;
	}
	scrollOffset += offset;
    13d6:	8b 15 40 07 01 00    	mov    0x10740,%edx
    13dc:	8b 45 08             	mov    0x8(%ebp),%eax
    13df:	01 d0                	add    %edx,%eax
    13e1:	a3 40 07 01 00       	mov    %eax,0x10740
}
    13e6:	c9                   	leave  
    13e7:	c3                   	ret    

000013e8 <scrollDown>:

void scrollDown() {
    13e8:	55                   	push   %ebp
    13e9:	89 e5                	mov    %esp,%ebp
    13eb:	83 ec 18             	sub    $0x18,%esp
	struct fileItem *q = fileItemList;
    13ee:	a1 50 07 01 00       	mov    0x10750,%eax
    13f3:	89 45 f4             	mov    %eax,-0xc(%ebp)
	// while (q != 0)
	// {
	// 	p = q;
	// 	q = q->next;
	// }
	printf(0, "have you ever had sex?%d\n%d", fileItemList->pos.start.y, (WINDOW_HEIGHT - LIST_ITEM_HEIGHT));
    13f6:	a1 50 07 01 00       	mov    0x10750,%eax
    13fb:	8b 40 1c             	mov    0x1c(%eax),%eax
    13fe:	68 a4 01 00 00       	push   $0x1a4
    1403:	50                   	push   %eax
    1404:	68 f5 b8 00 00       	push   $0xb8f5
    1409:	6a 00                	push   $0x0
    140b:	e8 89 3d 00 00       	call   5199 <printf>
    1410:	83 c4 10             	add    $0x10,%esp
	if (style == ICON_STYLE){
    1413:	a1 04 fd 00 00       	mov    0xfd04,%eax
    1418:	83 f8 01             	cmp    $0x1,%eax
    141b:	75 46                	jne    1463 <scrollDown+0x7b>
		if(q->pos.start.y > (WINDOW_HEIGHT - ICON_ITEM_HEIGHT)){
    141d:	8b 45 f4             	mov    -0xc(%ebp),%eax
    1420:	8b 40 1c             	mov    0x1c(%eax),%eax
    1423:	3d 63 01 00 00       	cmp    $0x163,%eax
    1428:	7e 7d                	jle    14a7 <scrollDown+0xbf>
			if(q->pos.start.y > WINDOW_HEIGHT){
    142a:	8b 45 f4             	mov    -0xc(%ebp),%eax
    142d:	8b 40 1c             	mov    0x1c(%eax),%eax
    1430:	3d c2 01 00 00       	cmp    $0x1c2,%eax
    1435:	7e 0f                	jle    1446 <scrollDown+0x5e>
				scrollList(-SCROLL_UNIT);
    1437:	83 ec 0c             	sub    $0xc,%esp
    143a:	6a e2                	push   $0xffffffe2
    143c:	e8 65 ff ff ff       	call   13a6 <scrollList>
    1441:	83 c4 10             	add    $0x10,%esp
    1444:	eb 61                	jmp    14a7 <scrollDown+0xbf>
			}
			else{
				scrollList(-(q->pos.start.y - (WINDOW_HEIGHT - ICON_ITEM_HEIGHT)));
    1446:	8b 45 f4             	mov    -0xc(%ebp),%eax
    1449:	8b 40 1c             	mov    0x1c(%eax),%eax
    144c:	ba 63 01 00 00       	mov    $0x163,%edx
    1451:	29 c2                	sub    %eax,%edx
    1453:	89 d0                	mov    %edx,%eax
    1455:	83 ec 0c             	sub    $0xc,%esp
    1458:	50                   	push   %eax
    1459:	e8 48 ff ff ff       	call   13a6 <scrollList>
    145e:	83 c4 10             	add    $0x10,%esp
    1461:	eb 44                	jmp    14a7 <scrollDown+0xbf>
			}
		}
	}
	else{
		if(q->pos.start.y > (WINDOW_HEIGHT - LIST_ITEM_HEIGHT)){
    1463:	8b 45 f4             	mov    -0xc(%ebp),%eax
    1466:	8b 40 1c             	mov    0x1c(%eax),%eax
    1469:	3d a4 01 00 00       	cmp    $0x1a4,%eax
    146e:	7e 37                	jle    14a7 <scrollDown+0xbf>
			if(q->pos.start.y > WINDOW_HEIGHT){
    1470:	8b 45 f4             	mov    -0xc(%ebp),%eax
    1473:	8b 40 1c             	mov    0x1c(%eax),%eax
    1476:	3d c2 01 00 00       	cmp    $0x1c2,%eax
    147b:	7e 0f                	jle    148c <scrollDown+0xa4>
				scrollList(-SCROLL_UNIT);
    147d:	83 ec 0c             	sub    $0xc,%esp
    1480:	6a e2                	push   $0xffffffe2
    1482:	e8 1f ff ff ff       	call   13a6 <scrollList>
    1487:	83 c4 10             	add    $0x10,%esp
    148a:	eb 1b                	jmp    14a7 <scrollDown+0xbf>
			}
			else{
				scrollList(-(q->pos.start.y - (WINDOW_HEIGHT - LIST_ITEM_HEIGHT)));
    148c:	8b 45 f4             	mov    -0xc(%ebp),%eax
    148f:	8b 40 1c             	mov    0x1c(%eax),%eax
    1492:	ba a4 01 00 00       	mov    $0x1a4,%edx
    1497:	29 c2                	sub    %eax,%edx
    1499:	89 d0                	mov    %edx,%eax
    149b:	83 ec 0c             	sub    $0xc,%esp
    149e:	50                   	push   %eax
    149f:	e8 02 ff ff ff       	call   13a6 <scrollList>
    14a4:	83 c4 10             	add    $0x10,%esp
			}
		}
	}
	//printf(0, "tryingToScrollDown, current Offset %d\n", scrollOffset);
	printf(0, "scrollDown, current Offset %d\n", scrollOffset);
    14a7:	a1 40 07 01 00       	mov    0x10740,%eax
    14ac:	83 ec 04             	sub    $0x4,%esp
    14af:	50                   	push   %eax
    14b0:	68 14 b9 00 00       	push   $0xb914
    14b5:	6a 00                	push   $0x0
    14b7:	e8 dd 3c 00 00       	call   5199 <printf>
    14bc:	83 c4 10             	add    $0x10,%esp
}
    14bf:	c9                   	leave  
    14c0:	c3                   	ret    

000014c1 <h_scrollDown>:

void h_scrollDown(Point p) {
    14c1:	55                   	push   %ebp
    14c2:	89 e5                	mov    %esp,%ebp
    14c4:	83 ec 18             	sub    $0x18,%esp
	scrollDown();
    14c7:	e8 1c ff ff ff       	call   13e8 <scrollDown>
//	updateFileList(context);
//	fileSortByName();
	drawFinderContent(context);
    14cc:	83 ec 04             	sub    $0x4,%esp
    14cf:	ff 35 08 3f 01 00    	pushl  0x13f08
    14d5:	ff 35 04 3f 01 00    	pushl  0x13f04
    14db:	ff 35 00 3f 01 00    	pushl  0x13f00
    14e1:	e8 5c f8 ff ff       	call   d42 <drawFinderContent>
    14e6:	83 c4 10             	add    $0x10,%esp
	drawFinderWnd(context);
    14e9:	83 ec 04             	sub    $0x4,%esp
    14ec:	ff 35 08 3f 01 00    	pushl  0x13f08
    14f2:	ff 35 04 3f 01 00    	pushl  0x13f04
    14f8:	ff 35 00 3f 01 00    	pushl  0x13f00
    14fe:	e8 cc f5 ff ff       	call   acf <drawFinderWnd>
    1503:	83 c4 10             	add    $0x10,%esp
	deleteClickable(&cm.left_click, initRect(0, 0, 800, 600));
    1506:	8d 45 e8             	lea    -0x18(%ebp),%eax
    1509:	83 ec 0c             	sub    $0xc,%esp
    150c:	68 58 02 00 00       	push   $0x258
    1511:	68 20 03 00 00       	push   $0x320
    1516:	6a 00                	push   $0x0
    1518:	6a 00                	push   $0x0
    151a:	50                   	push   %eax
    151b:	e8 b3 32 00 00       	call   47d3 <initRect>
    1520:	83 c4 1c             	add    $0x1c,%esp
    1523:	83 ec 0c             	sub    $0xc,%esp
    1526:	ff 75 f4             	pushl  -0xc(%ebp)
    1529:	ff 75 f0             	pushl  -0x10(%ebp)
    152c:	ff 75 ec             	pushl  -0x14(%ebp)
    152f:	ff 75 e8             	pushl  -0x18(%ebp)
    1532:	68 40 40 01 00       	push   $0x14040
    1537:	e8 5c 34 00 00       	call   4998 <deleteClickable>
    153c:	83 c4 20             	add    $0x20,%esp
	addWndEvent(&cm);
    153f:	83 ec 0c             	sub    $0xc,%esp
    1542:	68 40 40 01 00       	push   $0x14040
    1547:	e8 5e fc ff ff       	call   11aa <addWndEvent>
    154c:	83 c4 10             	add    $0x10,%esp
	addListEvent(&cm);
    154f:	83 ec 0c             	sub    $0xc,%esp
    1552:	68 40 40 01 00       	push   $0x14040
    1557:	e8 f3 fb ff ff       	call   114f <addListEvent>
    155c:	83 c4 10             	add    $0x10,%esp
}
    155f:	c9                   	leave  
    1560:	c3                   	ret    

00001561 <scrollUp>:

void scrollUp() {
    1561:	55                   	push   %ebp
    1562:	89 e5                	mov    %esp,%ebp
    1564:	83 ec 18             	sub    $0x18,%esp
	struct fileItem *q = fileItemList;
    1567:	a1 50 07 01 00       	mov    0x10750,%eax
    156c:	89 45 f4             	mov    %eax,-0xc(%ebp)
	struct fileItem *p;
	while (q != 0)
    156f:	eb 0f                	jmp    1580 <scrollUp+0x1f>
	{
		p = q;
    1571:	8b 45 f4             	mov    -0xc(%ebp),%eax
    1574:	89 45 f0             	mov    %eax,-0x10(%ebp)
		q = q->next;
    1577:	8b 45 f4             	mov    -0xc(%ebp),%eax
    157a:	8b 40 2c             	mov    0x2c(%eax),%eax
    157d:	89 45 f4             	mov    %eax,-0xc(%ebp)
}

void scrollUp() {
	struct fileItem *q = fileItemList;
	struct fileItem *p;
	while (q != 0)
    1580:	83 7d f4 00          	cmpl   $0x0,-0xc(%ebp)
    1584:	75 eb                	jne    1571 <scrollUp+0x10>
	{
		p = q;
		q = q->next;
	}
	printf(0, "the first file's y is tmd:%d\n", p->pos.start.y);
    1586:	8b 45 f0             	mov    -0x10(%ebp),%eax
    1589:	8b 40 1c             	mov    0x1c(%eax),%eax
    158c:	83 ec 04             	sub    $0x4,%esp
    158f:	50                   	push   %eax
    1590:	68 33 b9 00 00       	push   $0xb933
    1595:	6a 00                	push   $0x0
    1597:	e8 fd 3b 00 00       	call   5199 <printf>
    159c:	83 c4 10             	add    $0x10,%esp
	printf(0, "have you ever had sex?%d\n", fileItemList->pos.start.y);
    159f:	a1 50 07 01 00       	mov    0x10750,%eax
    15a4:	8b 40 1c             	mov    0x1c(%eax),%eax
    15a7:	83 ec 04             	sub    $0x4,%esp
    15aa:	50                   	push   %eax
    15ab:	68 51 b9 00 00       	push   $0xb951
    15b0:	6a 00                	push   $0x0
    15b2:	e8 e2 3b 00 00       	call   5199 <printf>
    15b7:	83 c4 10             	add    $0x10,%esp
	if (style == ICON_STYLE){
    15ba:	a1 04 fd 00 00       	mov    0xfd04,%eax
    15bf:	83 f8 01             	cmp    $0x1,%eax
    15c2:	75 42                	jne    1606 <scrollUp+0xa5>
		if(p->pos.start.y < (TOPBAR_HEIGHT + TOOLSBAR_HEIGHT)){
    15c4:	8b 45 f0             	mov    -0x10(%ebp),%eax
    15c7:	8b 40 1c             	mov    0x1c(%eax),%eax
    15ca:	83 f8 45             	cmp    $0x45,%eax
    15cd:	7f 77                	jg     1646 <scrollUp+0xe5>
			if(p->pos.start.y < (TOPBAR_HEIGHT + TOOLSBAR_HEIGHT - ICON_ITEM_HEIGHT)){
    15cf:	8b 45 f0             	mov    -0x10(%ebp),%eax
    15d2:	8b 40 1c             	mov    0x1c(%eax),%eax
    15d5:	83 f8 e7             	cmp    $0xffffffe7,%eax
    15d8:	7d 0f                	jge    15e9 <scrollUp+0x88>
				scrollList(SCROLL_UNIT);
    15da:	83 ec 0c             	sub    $0xc,%esp
    15dd:	6a 1e                	push   $0x1e
    15df:	e8 c2 fd ff ff       	call   13a6 <scrollList>
    15e4:	83 c4 10             	add    $0x10,%esp
    15e7:	eb 5d                	jmp    1646 <scrollUp+0xe5>
			}
			else{
				scrollList((TOPBAR_HEIGHT + TOOLSBAR_HEIGHT) - p->pos.start.y);
    15e9:	8b 45 f0             	mov    -0x10(%ebp),%eax
    15ec:	8b 40 1c             	mov    0x1c(%eax),%eax
    15ef:	ba 46 00 00 00       	mov    $0x46,%edx
    15f4:	29 c2                	sub    %eax,%edx
    15f6:	89 d0                	mov    %edx,%eax
    15f8:	83 ec 0c             	sub    $0xc,%esp
    15fb:	50                   	push   %eax
    15fc:	e8 a5 fd ff ff       	call   13a6 <scrollList>
    1601:	83 c4 10             	add    $0x10,%esp
    1604:	eb 40                	jmp    1646 <scrollUp+0xe5>
			}
		}
	}
	else{
		if(p->pos.start.y < (TOPBAR_HEIGHT + TOOLSBAR_HEIGHT + TAGBAR_HEIGHT)){
    1606:	8b 45 f0             	mov    -0x10(%ebp),%eax
    1609:	8b 40 1c             	mov    0x1c(%eax),%eax
    160c:	83 f8 61             	cmp    $0x61,%eax
    160f:	7f 35                	jg     1646 <scrollUp+0xe5>
			if(p->pos.start.y < (TOPBAR_HEIGHT + TOOLSBAR_HEIGHT + TAGBAR_HEIGHT - LIST_ITEM_HEIGHT)){
    1611:	8b 45 f0             	mov    -0x10(%ebp),%eax
    1614:	8b 40 1c             	mov    0x1c(%eax),%eax
    1617:	83 f8 43             	cmp    $0x43,%eax
    161a:	7f 0f                	jg     162b <scrollUp+0xca>
				scrollList(SCROLL_UNIT);
    161c:	83 ec 0c             	sub    $0xc,%esp
    161f:	6a 1e                	push   $0x1e
    1621:	e8 80 fd ff ff       	call   13a6 <scrollList>
    1626:	83 c4 10             	add    $0x10,%esp
    1629:	eb 1b                	jmp    1646 <scrollUp+0xe5>
			}
			else{
				scrollList((TOPBAR_HEIGHT + TOOLSBAR_HEIGHT + TAGBAR_HEIGHT) - p->pos.start.y);
    162b:	8b 45 f0             	mov    -0x10(%ebp),%eax
    162e:	8b 40 1c             	mov    0x1c(%eax),%eax
    1631:	ba 62 00 00 00       	mov    $0x62,%edx
    1636:	29 c2                	sub    %eax,%edx
    1638:	89 d0                	mov    %edx,%eax
    163a:	83 ec 0c             	sub    $0xc,%esp
    163d:	50                   	push   %eax
    163e:	e8 63 fd ff ff       	call   13a6 <scrollList>
    1643:	83 c4 10             	add    $0x10,%esp
			}
		}
	}
	//printf(0, "tryingToScrollUp, current Offset %d\n", scrollOffset);
	printf(0, "scrollUp, current Offset %d\n", scrollOffset);
    1646:	a1 40 07 01 00       	mov    0x10740,%eax
    164b:	83 ec 04             	sub    $0x4,%esp
    164e:	50                   	push   %eax
    164f:	68 6b b9 00 00       	push   $0xb96b
    1654:	6a 00                	push   $0x0
    1656:	e8 3e 3b 00 00       	call   5199 <printf>
    165b:	83 c4 10             	add    $0x10,%esp
}
    165e:	c9                   	leave  
    165f:	c3                   	ret    

00001660 <h_scrollUp>:

void h_scrollUp(Point p) {
    1660:	55                   	push   %ebp
    1661:	89 e5                	mov    %esp,%ebp
    1663:	83 ec 18             	sub    $0x18,%esp
	scrollUp();
    1666:	e8 f6 fe ff ff       	call   1561 <scrollUp>
//	updateFileList(context);
//	fileSortByName();
	drawFinderContent(context);
    166b:	83 ec 04             	sub    $0x4,%esp
    166e:	ff 35 08 3f 01 00    	pushl  0x13f08
    1674:	ff 35 04 3f 01 00    	pushl  0x13f04
    167a:	ff 35 00 3f 01 00    	pushl  0x13f00
    1680:	e8 bd f6 ff ff       	call   d42 <drawFinderContent>
    1685:	83 c4 10             	add    $0x10,%esp
	drawFinderWnd(context);
    1688:	83 ec 04             	sub    $0x4,%esp
    168b:	ff 35 08 3f 01 00    	pushl  0x13f08
    1691:	ff 35 04 3f 01 00    	pushl  0x13f04
    1697:	ff 35 00 3f 01 00    	pushl  0x13f00
    169d:	e8 2d f4 ff ff       	call   acf <drawFinderWnd>
    16a2:	83 c4 10             	add    $0x10,%esp
	deleteClickable(&cm.left_click, initRect(0, 0, 800, 600));
    16a5:	8d 45 e8             	lea    -0x18(%ebp),%eax
    16a8:	83 ec 0c             	sub    $0xc,%esp
    16ab:	68 58 02 00 00       	push   $0x258
    16b0:	68 20 03 00 00       	push   $0x320
    16b5:	6a 00                	push   $0x0
    16b7:	6a 00                	push   $0x0
    16b9:	50                   	push   %eax
    16ba:	e8 14 31 00 00       	call   47d3 <initRect>
    16bf:	83 c4 1c             	add    $0x1c,%esp
    16c2:	83 ec 0c             	sub    $0xc,%esp
    16c5:	ff 75 f4             	pushl  -0xc(%ebp)
    16c8:	ff 75 f0             	pushl  -0x10(%ebp)
    16cb:	ff 75 ec             	pushl  -0x14(%ebp)
    16ce:	ff 75 e8             	pushl  -0x18(%ebp)
    16d1:	68 40 40 01 00       	push   $0x14040
    16d6:	e8 bd 32 00 00       	call   4998 <deleteClickable>
    16db:	83 c4 20             	add    $0x20,%esp
	addWndEvent(&cm);
    16de:	83 ec 0c             	sub    $0xc,%esp
    16e1:	68 40 40 01 00       	push   $0x14040
    16e6:	e8 bf fa ff ff       	call   11aa <addWndEvent>
    16eb:	83 c4 10             	add    $0x10,%esp
	addListEvent(&cm);
    16ee:	83 ec 0c             	sub    $0xc,%esp
    16f1:	68 40 40 01 00       	push   $0x14040
    16f6:	e8 54 fa ff ff       	call   114f <addListEvent>
    16fb:	83 c4 10             	add    $0x10,%esp
}
    16fe:	c9                   	leave  
    16ff:	c3                   	ret    

00001700 <updatePath>:

void updatePath(char *name) {
    1700:	55                   	push   %ebp
    1701:	89 e5                	mov    %esp,%ebp
    1703:	83 ec 18             	sub    $0x18,%esp
	//printf(2, "cd success\r\n");
	int n = strlen(name);
    1706:	83 ec 0c             	sub    $0xc,%esp
    1709:	ff 75 08             	pushl  0x8(%ebp)
    170c:	e8 ea 36 00 00       	call   4dfb <strlen>
    1711:	83 c4 10             	add    $0x10,%esp
    1714:	89 45 f0             	mov    %eax,-0x10(%ebp)
	int i;
	if (n == 2 && name[0] == '.' && name[1] == '.')
    1717:	83 7d f0 02          	cmpl   $0x2,-0x10(%ebp)
    171b:	0f 85 90 00 00 00    	jne    17b1 <updatePath+0xb1>
    1721:	8b 45 08             	mov    0x8(%ebp),%eax
    1724:	0f b6 00             	movzbl (%eax),%eax
    1727:	3c 2e                	cmp    $0x2e,%al
    1729:	0f 85 82 00 00 00    	jne    17b1 <updatePath+0xb1>
    172f:	8b 45 08             	mov    0x8(%ebp),%eax
    1732:	83 c0 01             	add    $0x1,%eax
    1735:	0f b6 00             	movzbl (%eax),%eax
    1738:	3c 2e                	cmp    $0x2e,%al
    173a:	75 75                	jne    17b1 <updatePath+0xb1>
	{
		if (!(strlen(currentPath) == 1 && currentPath[0] == '/'))
    173c:	83 ec 0c             	sub    $0xc,%esp
    173f:	68 40 3f 01 00       	push   $0x13f40
    1744:	e8 b2 36 00 00       	call   4dfb <strlen>
    1749:	83 c4 10             	add    $0x10,%esp
    174c:	83 f8 01             	cmp    $0x1,%eax
    174f:	75 0b                	jne    175c <updatePath+0x5c>
    1751:	0f b6 05 40 3f 01 00 	movzbl 0x13f40,%eax
    1758:	3c 2f                	cmp    $0x2f,%al
    175a:	74 53                	je     17af <updatePath+0xaf>
		{
			int tmpn = strlen(currentPath);
    175c:	83 ec 0c             	sub    $0xc,%esp
    175f:	68 40 3f 01 00       	push   $0x13f40
    1764:	e8 92 36 00 00       	call   4dfb <strlen>
    1769:	83 c4 10             	add    $0x10,%esp
    176c:	89 45 ec             	mov    %eax,-0x14(%ebp)
			currentPath[tmpn - 1] = '\0';
    176f:	8b 45 ec             	mov    -0x14(%ebp),%eax
    1772:	83 e8 01             	sub    $0x1,%eax
    1775:	c6 80 40 3f 01 00 00 	movb   $0x0,0x13f40(%eax)
			for (i = tmpn - 2; i > 0; i--)
    177c:	8b 45 ec             	mov    -0x14(%ebp),%eax
    177f:	83 e8 02             	sub    $0x2,%eax
    1782:	89 45 f4             	mov    %eax,-0xc(%ebp)
    1785:	eb 22                	jmp    17a9 <updatePath+0xa9>
			{
				if (currentPath[i] != '/')
    1787:	8b 45 f4             	mov    -0xc(%ebp),%eax
    178a:	05 40 3f 01 00       	add    $0x13f40,%eax
    178f:	0f b6 00             	movzbl (%eax),%eax
    1792:	3c 2f                	cmp    $0x2f,%al
    1794:	74 0d                	je     17a3 <updatePath+0xa3>
					currentPath[i] = '\0';
    1796:	8b 45 f4             	mov    -0xc(%ebp),%eax
    1799:	05 40 3f 01 00       	add    $0x13f40,%eax
    179e:	c6 00 00             	movb   $0x0,(%eax)
    17a1:	eb 02                	jmp    17a5 <updatePath+0xa5>
				else
					break;
    17a3:	eb 0a                	jmp    17af <updatePath+0xaf>
	{
		if (!(strlen(currentPath) == 1 && currentPath[0] == '/'))
		{
			int tmpn = strlen(currentPath);
			currentPath[tmpn - 1] = '\0';
			for (i = tmpn - 2; i > 0; i--)
    17a5:	83 6d f4 01          	subl   $0x1,-0xc(%ebp)
    17a9:	83 7d f4 00          	cmpl   $0x0,-0xc(%ebp)
    17ad:	7f d8                	jg     1787 <updatePath+0x87>
	//printf(2, "cd success\r\n");
	int n = strlen(name);
	int i;
	if (n == 2 && name[0] == '.' && name[1] == '.')
	{
		if (!(strlen(currentPath) == 1 && currentPath[0] == '/'))
    17af:	eb 55                	jmp    1806 <updatePath+0x106>
			}
		}
	}
	else
	{
		int tmpn = strlen(currentPath);
    17b1:	83 ec 0c             	sub    $0xc,%esp
    17b4:	68 40 3f 01 00       	push   $0x13f40
    17b9:	e8 3d 36 00 00       	call   4dfb <strlen>
    17be:	83 c4 10             	add    $0x10,%esp
    17c1:	89 45 e8             	mov    %eax,-0x18(%ebp)
		strcpy(currentPath + tmpn, name);
    17c4:	8b 45 e8             	mov    -0x18(%ebp),%eax
    17c7:	05 40 3f 01 00       	add    $0x13f40,%eax
    17cc:	83 ec 08             	sub    $0x8,%esp
    17cf:	ff 75 08             	pushl  0x8(%ebp)
    17d2:	50                   	push   %eax
    17d3:	e8 b4 35 00 00       	call   4d8c <strcpy>
    17d8:	83 c4 10             	add    $0x10,%esp
		tmpn = strlen(currentPath);
    17db:	83 ec 0c             	sub    $0xc,%esp
    17de:	68 40 3f 01 00       	push   $0x13f40
    17e3:	e8 13 36 00 00       	call   4dfb <strlen>
    17e8:	83 c4 10             	add    $0x10,%esp
    17eb:	89 45 e8             	mov    %eax,-0x18(%ebp)
		currentPath[tmpn] = '/';
    17ee:	8b 45 e8             	mov    -0x18(%ebp),%eax
    17f1:	05 40 3f 01 00       	add    $0x13f40,%eax
    17f6:	c6 00 2f             	movb   $0x2f,(%eax)
		currentPath[tmpn + 1] = '\0';
    17f9:	8b 45 e8             	mov    -0x18(%ebp),%eax
    17fc:	83 c0 01             	add    $0x1,%eax
    17ff:	c6 80 40 3f 01 00 00 	movb   $0x0,0x13f40(%eax)
	}
}
    1806:	c9                   	leave  
    1807:	c3                   	ret    

00001808 <enterDir>:

// Handlers
void enterDir(char *name) {
    1808:	55                   	push   %ebp
    1809:	89 e5                	mov    %esp,%ebp
    180b:	83 ec 08             	sub    $0x8,%esp
	scrollOffset = 0;
    180e:	c7 05 40 07 01 00 00 	movl   $0x0,0x10740
    1815:	00 00 00 
	printf(0, "entering : %s\n", name);
    1818:	83 ec 04             	sub    $0x4,%esp
    181b:	ff 75 08             	pushl  0x8(%ebp)
    181e:	68 88 b9 00 00       	push   $0xb988
    1823:	6a 00                	push   $0x0
    1825:	e8 6f 39 00 00       	call   5199 <printf>
    182a:	83 c4 10             	add    $0x10,%esp
	if (chdir(name) < 0)
    182d:	83 ec 0c             	sub    $0xc,%esp
    1830:	ff 75 08             	pushl  0x8(%ebp)
    1833:	e8 f4 37 00 00       	call   502c <chdir>
    1838:	83 c4 10             	add    $0x10,%esp
    183b:	85 c0                	test   %eax,%eax
    183d:	79 17                	jns    1856 <enterDir+0x4e>
		printf(2, "cannot cd %s\n", name);
    183f:	83 ec 04             	sub    $0x4,%esp
    1842:	ff 75 08             	pushl  0x8(%ebp)
    1845:	68 97 b9 00 00       	push   $0xb997
    184a:	6a 02                	push   $0x2
    184c:	e8 48 39 00 00       	call   5199 <printf>
    1851:	83 c4 10             	add    $0x10,%esp
    1854:	eb 0e                	jmp    1864 <enterDir+0x5c>
	else
		updatePath(name);
    1856:	83 ec 0c             	sub    $0xc,%esp
    1859:	ff 75 08             	pushl  0x8(%ebp)
    185c:	e8 9f fe ff ff       	call   1700 <updatePath>
    1861:	83 c4 10             	add    $0x10,%esp
	printf(0, "currentPath: %s\n", currentPath);
    1864:	83 ec 04             	sub    $0x4,%esp
    1867:	68 40 3f 01 00       	push   $0x13f40
    186c:	68 a5 b9 00 00       	push   $0xb9a5
    1871:	6a 00                	push   $0x0
    1873:	e8 21 39 00 00       	call   5199 <printf>
    1878:	83 c4 10             	add    $0x10,%esp
}
    187b:	c9                   	leave  
    187c:	c3                   	ret    

0000187d <h_enterDir>:

void h_enterDir(Point p) {
    187d:	55                   	push   %ebp
    187e:	89 e5                	mov    %esp,%ebp
    1880:	83 ec 28             	sub    $0x28,%esp
	struct fileItem *temp = getFileItem(p);
    1883:	83 ec 08             	sub    $0x8,%esp
    1886:	ff 75 0c             	pushl  0xc(%ebp)
    1889:	ff 75 08             	pushl  0x8(%ebp)
    188c:	e8 05 fa ff ff       	call   1296 <getFileItem>
    1891:	83 c4 10             	add    $0x10,%esp
    1894:	89 45 f4             	mov    %eax,-0xc(%ebp)
	enterDir(temp->name);
    1897:	8b 45 f4             	mov    -0xc(%ebp),%eax
    189a:	8b 40 14             	mov    0x14(%eax),%eax
    189d:	83 ec 0c             	sub    $0xc,%esp
    18a0:	50                   	push   %eax
    18a1:	e8 62 ff ff ff       	call   1808 <enterDir>
    18a6:	83 c4 10             	add    $0x10,%esp
	updateFileList(context);
    18a9:	83 ec 04             	sub    $0x4,%esp
    18ac:	ff 35 08 3f 01 00    	pushl  0x13f08
    18b2:	ff 35 04 3f 01 00    	pushl  0x13f04
    18b8:	ff 35 00 3f 01 00    	pushl  0x13f00
    18be:	e8 2c f3 ff ff       	call   bef <updateFileList>
    18c3:	83 c4 10             	add    $0x10,%esp
	drawFinderContent(context);
    18c6:	83 ec 04             	sub    $0x4,%esp
    18c9:	ff 35 08 3f 01 00    	pushl  0x13f08
    18cf:	ff 35 04 3f 01 00    	pushl  0x13f04
    18d5:	ff 35 00 3f 01 00    	pushl  0x13f00
    18db:	e8 62 f4 ff ff       	call   d42 <drawFinderContent>
    18e0:	83 c4 10             	add    $0x10,%esp
	drawFinderWnd(context);
    18e3:	83 ec 04             	sub    $0x4,%esp
    18e6:	ff 35 08 3f 01 00    	pushl  0x13f08
    18ec:	ff 35 04 3f 01 00    	pushl  0x13f04
    18f2:	ff 35 00 3f 01 00    	pushl  0x13f00
    18f8:	e8 d2 f1 ff ff       	call   acf <drawFinderWnd>
    18fd:	83 c4 10             	add    $0x10,%esp
	deleteClickable(&cm.left_click, initRect(0, 0, 800, 600));
    1900:	8d 45 e4             	lea    -0x1c(%ebp),%eax
    1903:	83 ec 0c             	sub    $0xc,%esp
    1906:	68 58 02 00 00       	push   $0x258
    190b:	68 20 03 00 00       	push   $0x320
    1910:	6a 00                	push   $0x0
    1912:	6a 00                	push   $0x0
    1914:	50                   	push   %eax
    1915:	e8 b9 2e 00 00       	call   47d3 <initRect>
    191a:	83 c4 1c             	add    $0x1c,%esp
    191d:	83 ec 0c             	sub    $0xc,%esp
    1920:	ff 75 f0             	pushl  -0x10(%ebp)
    1923:	ff 75 ec             	pushl  -0x14(%ebp)
    1926:	ff 75 e8             	pushl  -0x18(%ebp)
    1929:	ff 75 e4             	pushl  -0x1c(%ebp)
    192c:	68 40 40 01 00       	push   $0x14040
    1931:	e8 62 30 00 00       	call   4998 <deleteClickable>
    1936:	83 c4 20             	add    $0x20,%esp
	addWndEvent(&cm);
    1939:	83 ec 0c             	sub    $0xc,%esp
    193c:	68 40 40 01 00       	push   $0x14040
    1941:	e8 64 f8 ff ff       	call   11aa <addWndEvent>
    1946:	83 c4 10             	add    $0x10,%esp
	addListEvent(&cm);
    1949:	83 ec 0c             	sub    $0xc,%esp
    194c:	68 40 40 01 00       	push   $0x14040
    1951:	e8 f9 f7 ff ff       	call   114f <addListEvent>
    1956:	83 c4 10             	add    $0x10,%esp
}
    1959:	c9                   	leave  
    195a:	c3                   	ret    

0000195b <newFile>:

void newFile(char *name) {
    195b:	55                   	push   %ebp
    195c:	89 e5                	mov    %esp,%ebp
    195e:	83 ec 18             	sub    $0x18,%esp
	int fd;
	int n = strlen(name);
    1961:	83 ec 0c             	sub    $0xc,%esp
    1964:	ff 75 08             	pushl  0x8(%ebp)
    1967:	e8 8f 34 00 00       	call   4dfb <strlen>
    196c:	83 c4 10             	add    $0x10,%esp
    196f:	89 45 f0             	mov    %eax,-0x10(%ebp)
	int baseLen = 8;
    1972:	c7 45 ec 08 00 00 00 	movl   $0x8,-0x14(%ebp)
	int counter;
	while ((fd = open(name, 0)) > 0)
    1979:	eb 70                	jmp    19eb <newFile+0x90>
	{
		n = strlen(name);
    197b:	83 ec 0c             	sub    $0xc,%esp
    197e:	ff 75 08             	pushl  0x8(%ebp)
    1981:	e8 75 34 00 00       	call   4dfb <strlen>
    1986:	83 c4 10             	add    $0x10,%esp
    1989:	89 45 f0             	mov    %eax,-0x10(%ebp)
		if (n == baseLen)
    198c:	8b 45 f0             	mov    -0x10(%ebp),%eax
    198f:	3b 45 ec             	cmp    -0x14(%ebp),%eax
    1992:	75 09                	jne    199d <newFile+0x42>
		{
			counter = 1;
    1994:	c7 45 f4 01 00 00 00 	movl   $0x1,-0xc(%ebp)
    199b:	eb 1b                	jmp    19b8 <newFile+0x5d>
		}
		else
		{
			counter = atoi(&name[baseLen]);
    199d:	8b 55 ec             	mov    -0x14(%ebp),%edx
    19a0:	8b 45 08             	mov    0x8(%ebp),%eax
    19a3:	01 d0                	add    %edx,%eax
    19a5:	83 ec 0c             	sub    $0xc,%esp
    19a8:	50                   	push   %eax
    19a9:	e8 7c 35 00 00       	call   4f2a <atoi>
    19ae:	83 c4 10             	add    $0x10,%esp
    19b1:	89 45 f4             	mov    %eax,-0xc(%ebp)
			counter ++;
    19b4:	83 45 f4 01          	addl   $0x1,-0xc(%ebp)
		}
		strcpy(&name[baseLen], int2str(counter));
    19b8:	83 ec 0c             	sub    $0xc,%esp
    19bb:	ff 75 f4             	pushl  -0xc(%ebp)
    19be:	e8 05 f5 ff ff       	call   ec8 <int2str>
    19c3:	83 c4 10             	add    $0x10,%esp
    19c6:	89 c1                	mov    %eax,%ecx
    19c8:	8b 55 ec             	mov    -0x14(%ebp),%edx
    19cb:	8b 45 08             	mov    0x8(%ebp),%eax
    19ce:	01 d0                	add    %edx,%eax
    19d0:	83 ec 08             	sub    $0x8,%esp
    19d3:	51                   	push   %ecx
    19d4:	50                   	push   %eax
    19d5:	e8 b2 33 00 00       	call   4d8c <strcpy>
    19da:	83 c4 10             	add    $0x10,%esp
		close(fd);
    19dd:	83 ec 0c             	sub    $0xc,%esp
    19e0:	ff 75 e8             	pushl  -0x18(%ebp)
    19e3:	e8 fc 35 00 00       	call   4fe4 <close>
    19e8:	83 c4 10             	add    $0x10,%esp
void newFile(char *name) {
	int fd;
	int n = strlen(name);
	int baseLen = 8;
	int counter;
	while ((fd = open(name, 0)) > 0)
    19eb:	83 ec 08             	sub    $0x8,%esp
    19ee:	6a 00                	push   $0x0
    19f0:	ff 75 08             	pushl  0x8(%ebp)
    19f3:	e8 04 36 00 00       	call   4ffc <open>
    19f8:	83 c4 10             	add    $0x10,%esp
    19fb:	89 45 e8             	mov    %eax,-0x18(%ebp)
    19fe:	83 7d e8 00          	cmpl   $0x0,-0x18(%ebp)
    1a02:	0f 8f 73 ff ff ff    	jg     197b <newFile+0x20>
			counter ++;
		}
		strcpy(&name[baseLen], int2str(counter));
		close(fd);
	}
	if ((fd = open(name, O_CREATE)) < 0) {
    1a08:	83 ec 08             	sub    $0x8,%esp
    1a0b:	68 00 02 00 00       	push   $0x200
    1a10:	ff 75 08             	pushl  0x8(%ebp)
    1a13:	e8 e4 35 00 00       	call   4ffc <open>
    1a18:	83 c4 10             	add    $0x10,%esp
    1a1b:	89 45 e8             	mov    %eax,-0x18(%ebp)
    1a1e:	83 7d e8 00          	cmpl   $0x0,-0x18(%ebp)
    1a22:	79 1a                	jns    1a3e <newFile+0xe3>
		printf(0, "cat: cannot open %s\n", name);
    1a24:	83 ec 04             	sub    $0x4,%esp
    1a27:	ff 75 08             	pushl  0x8(%ebp)
    1a2a:	68 b6 b9 00 00       	push   $0xb9b6
    1a2f:	6a 00                	push   $0x0
    1a31:	e8 63 37 00 00       	call   5199 <printf>
    1a36:	83 c4 10             	add    $0x10,%esp
		exit();
    1a39:	e8 7e 35 00 00       	call   4fbc <exit>
	}
	close(fd);
    1a3e:	83 ec 0c             	sub    $0xc,%esp
    1a41:	ff 75 e8             	pushl  -0x18(%ebp)
    1a44:	e8 9b 35 00 00       	call   4fe4 <close>
    1a49:	83 c4 10             	add    $0x10,%esp
}
    1a4c:	c9                   	leave  
    1a4d:	c3                   	ret    

00001a4e <h_newFile>:

void h_newFile(Point p) {
    1a4e:	55                   	push   %ebp
    1a4f:	89 e5                	mov    %esp,%ebp
    1a51:	83 ec 38             	sub    $0x38,%esp
	char nf[32] = "file.txt";
    1a54:	c7 45 c8 66 69 6c 65 	movl   $0x656c6966,-0x38(%ebp)
    1a5b:	c7 45 cc 2e 74 78 74 	movl   $0x7478742e,-0x34(%ebp)
    1a62:	c7 45 d0 00 00 00 00 	movl   $0x0,-0x30(%ebp)
    1a69:	c7 45 d4 00 00 00 00 	movl   $0x0,-0x2c(%ebp)
    1a70:	c7 45 d8 00 00 00 00 	movl   $0x0,-0x28(%ebp)
    1a77:	c7 45 dc 00 00 00 00 	movl   $0x0,-0x24(%ebp)
    1a7e:	c7 45 e0 00 00 00 00 	movl   $0x0,-0x20(%ebp)
    1a85:	c7 45 e4 00 00 00 00 	movl   $0x0,-0x1c(%ebp)
	newFile(nf);
    1a8c:	83 ec 0c             	sub    $0xc,%esp
    1a8f:	8d 45 c8             	lea    -0x38(%ebp),%eax
    1a92:	50                   	push   %eax
    1a93:	e8 c3 fe ff ff       	call   195b <newFile>
    1a98:	83 c4 10             	add    $0x10,%esp
	updateFileList(context);
    1a9b:	83 ec 04             	sub    $0x4,%esp
    1a9e:	ff 35 08 3f 01 00    	pushl  0x13f08
    1aa4:	ff 35 04 3f 01 00    	pushl  0x13f04
    1aaa:	ff 35 00 3f 01 00    	pushl  0x13f00
    1ab0:	e8 3a f1 ff ff       	call   bef <updateFileList>
    1ab5:	83 c4 10             	add    $0x10,%esp
	drawFinderContent(context);
    1ab8:	83 ec 04             	sub    $0x4,%esp
    1abb:	ff 35 08 3f 01 00    	pushl  0x13f08
    1ac1:	ff 35 04 3f 01 00    	pushl  0x13f04
    1ac7:	ff 35 00 3f 01 00    	pushl  0x13f00
    1acd:	e8 70 f2 ff ff       	call   d42 <drawFinderContent>
    1ad2:	83 c4 10             	add    $0x10,%esp
	drawFinderWnd(context);
    1ad5:	83 ec 04             	sub    $0x4,%esp
    1ad8:	ff 35 08 3f 01 00    	pushl  0x13f08
    1ade:	ff 35 04 3f 01 00    	pushl  0x13f04
    1ae4:	ff 35 00 3f 01 00    	pushl  0x13f00
    1aea:	e8 e0 ef ff ff       	call   acf <drawFinderWnd>
    1aef:	83 c4 10             	add    $0x10,%esp
	deleteClickable(&cm.left_click, initRect(0, 0, 800, 600));
    1af2:	8d 45 e8             	lea    -0x18(%ebp),%eax
    1af5:	83 ec 0c             	sub    $0xc,%esp
    1af8:	68 58 02 00 00       	push   $0x258
    1afd:	68 20 03 00 00       	push   $0x320
    1b02:	6a 00                	push   $0x0
    1b04:	6a 00                	push   $0x0
    1b06:	50                   	push   %eax
    1b07:	e8 c7 2c 00 00       	call   47d3 <initRect>
    1b0c:	83 c4 1c             	add    $0x1c,%esp
    1b0f:	83 ec 0c             	sub    $0xc,%esp
    1b12:	ff 75 f4             	pushl  -0xc(%ebp)
    1b15:	ff 75 f0             	pushl  -0x10(%ebp)
    1b18:	ff 75 ec             	pushl  -0x14(%ebp)
    1b1b:	ff 75 e8             	pushl  -0x18(%ebp)
    1b1e:	68 40 40 01 00       	push   $0x14040
    1b23:	e8 70 2e 00 00       	call   4998 <deleteClickable>
    1b28:	83 c4 20             	add    $0x20,%esp
	addWndEvent(&cm);
    1b2b:	83 ec 0c             	sub    $0xc,%esp
    1b2e:	68 40 40 01 00       	push   $0x14040
    1b33:	e8 72 f6 ff ff       	call   11aa <addWndEvent>
    1b38:	83 c4 10             	add    $0x10,%esp
	addListEvent(&cm);
    1b3b:	83 ec 0c             	sub    $0xc,%esp
    1b3e:	68 40 40 01 00       	push   $0x14040
    1b43:	e8 07 f6 ff ff       	call   114f <addListEvent>
    1b48:	83 c4 10             	add    $0x10,%esp
}
    1b4b:	c9                   	leave  
    1b4c:	c3                   	ret    

00001b4d <newFolder>:

void newFolder(char *name) {
    1b4d:	55                   	push   %ebp
    1b4e:	89 e5                	mov    %esp,%ebp
    1b50:	83 ec 18             	sub    $0x18,%esp
//	int fd;
//	int n = strlen(newfolder);
	int n = strlen(name);
    1b53:	83 ec 0c             	sub    $0xc,%esp
    1b56:	ff 75 08             	pushl  0x8(%ebp)
    1b59:	e8 9d 32 00 00       	call   4dfb <strlen>
    1b5e:	83 c4 10             	add    $0x10,%esp
    1b61:	89 45 f0             	mov    %eax,-0x10(%ebp)
	int baseLen = 9;
    1b64:	c7 45 ec 09 00 00 00 	movl   $0x9,-0x14(%ebp)
	int counter;
	while (mkdir(name) < 0) {
    1b6b:	eb 62                	jmp    1bcf <newFolder+0x82>
		n = strlen(name);
    1b6d:	83 ec 0c             	sub    $0xc,%esp
    1b70:	ff 75 08             	pushl  0x8(%ebp)
    1b73:	e8 83 32 00 00       	call   4dfb <strlen>
    1b78:	83 c4 10             	add    $0x10,%esp
    1b7b:	89 45 f0             	mov    %eax,-0x10(%ebp)
		if (n == baseLen)
    1b7e:	8b 45 f0             	mov    -0x10(%ebp),%eax
    1b81:	3b 45 ec             	cmp    -0x14(%ebp),%eax
    1b84:	75 09                	jne    1b8f <newFolder+0x42>
		{
			counter = 1;
    1b86:	c7 45 f4 01 00 00 00 	movl   $0x1,-0xc(%ebp)
    1b8d:	eb 1b                	jmp    1baa <newFolder+0x5d>
		}
		else
		{
			counter = atoi(&name[baseLen]);
    1b8f:	8b 55 ec             	mov    -0x14(%ebp),%edx
    1b92:	8b 45 08             	mov    0x8(%ebp),%eax
    1b95:	01 d0                	add    %edx,%eax
    1b97:	83 ec 0c             	sub    $0xc,%esp
    1b9a:	50                   	push   %eax
    1b9b:	e8 8a 33 00 00       	call   4f2a <atoi>
    1ba0:	83 c4 10             	add    $0x10,%esp
    1ba3:	89 45 f4             	mov    %eax,-0xc(%ebp)
			counter ++;
    1ba6:	83 45 f4 01          	addl   $0x1,-0xc(%ebp)
		}
		strcpy(&name[baseLen], int2str(counter));
    1baa:	83 ec 0c             	sub    $0xc,%esp
    1bad:	ff 75 f4             	pushl  -0xc(%ebp)
    1bb0:	e8 13 f3 ff ff       	call   ec8 <int2str>
    1bb5:	83 c4 10             	add    $0x10,%esp
    1bb8:	89 c1                	mov    %eax,%ecx
    1bba:	8b 55 ec             	mov    -0x14(%ebp),%edx
    1bbd:	8b 45 08             	mov    0x8(%ebp),%eax
    1bc0:	01 d0                	add    %edx,%eax
    1bc2:	83 ec 08             	sub    $0x8,%esp
    1bc5:	51                   	push   %ecx
    1bc6:	50                   	push   %eax
    1bc7:	e8 c0 31 00 00       	call   4d8c <strcpy>
    1bcc:	83 c4 10             	add    $0x10,%esp
//	int fd;
//	int n = strlen(newfolder);
	int n = strlen(name);
	int baseLen = 9;
	int counter;
	while (mkdir(name) < 0) {
    1bcf:	83 ec 0c             	sub    $0xc,%esp
    1bd2:	ff 75 08             	pushl  0x8(%ebp)
    1bd5:	e8 4a 34 00 00       	call   5024 <mkdir>
    1bda:	83 c4 10             	add    $0x10,%esp
    1bdd:	85 c0                	test   %eax,%eax
    1bdf:	78 8c                	js     1b6d <newFolder+0x20>
			counter ++;
		}
		strcpy(&name[baseLen], int2str(counter));
		//printf(0, "mkdir: %s failed to create\n", newfolder);
	}
}
    1be1:	c9                   	leave  
    1be2:	c3                   	ret    

00001be3 <h_newFolder>:

void h_newFolder(Point p) {
    1be3:	55                   	push   %ebp
    1be4:	89 e5                	mov    %esp,%ebp
    1be6:	83 ec 38             	sub    $0x38,%esp
	char nf[32] = "newFolder";
    1be9:	c7 45 c8 6e 65 77 46 	movl   $0x4677656e,-0x38(%ebp)
    1bf0:	c7 45 cc 6f 6c 64 65 	movl   $0x65646c6f,-0x34(%ebp)
    1bf7:	c7 45 d0 72 00 00 00 	movl   $0x72,-0x30(%ebp)
    1bfe:	c7 45 d4 00 00 00 00 	movl   $0x0,-0x2c(%ebp)
    1c05:	c7 45 d8 00 00 00 00 	movl   $0x0,-0x28(%ebp)
    1c0c:	c7 45 dc 00 00 00 00 	movl   $0x0,-0x24(%ebp)
    1c13:	c7 45 e0 00 00 00 00 	movl   $0x0,-0x20(%ebp)
    1c1a:	c7 45 e4 00 00 00 00 	movl   $0x0,-0x1c(%ebp)
	newFolder(nf);
    1c21:	83 ec 0c             	sub    $0xc,%esp
    1c24:	8d 45 c8             	lea    -0x38(%ebp),%eax
    1c27:	50                   	push   %eax
    1c28:	e8 20 ff ff ff       	call   1b4d <newFolder>
    1c2d:	83 c4 10             	add    $0x10,%esp
	printf(0, "new folder!\n");
    1c30:	83 ec 08             	sub    $0x8,%esp
    1c33:	68 cb b9 00 00       	push   $0xb9cb
    1c38:	6a 00                	push   $0x0
    1c3a:	e8 5a 35 00 00       	call   5199 <printf>
    1c3f:	83 c4 10             	add    $0x10,%esp
	updateFileList(context);
    1c42:	83 ec 04             	sub    $0x4,%esp
    1c45:	ff 35 08 3f 01 00    	pushl  0x13f08
    1c4b:	ff 35 04 3f 01 00    	pushl  0x13f04
    1c51:	ff 35 00 3f 01 00    	pushl  0x13f00
    1c57:	e8 93 ef ff ff       	call   bef <updateFileList>
    1c5c:	83 c4 10             	add    $0x10,%esp
	printItemList();
    1c5f:	e8 4c f3 ff ff       	call   fb0 <printItemList>
	drawFinderContent(context);
    1c64:	83 ec 04             	sub    $0x4,%esp
    1c67:	ff 35 08 3f 01 00    	pushl  0x13f08
    1c6d:	ff 35 04 3f 01 00    	pushl  0x13f04
    1c73:	ff 35 00 3f 01 00    	pushl  0x13f00
    1c79:	e8 c4 f0 ff ff       	call   d42 <drawFinderContent>
    1c7e:	83 c4 10             	add    $0x10,%esp
	drawFinderWnd(context);
    1c81:	83 ec 04             	sub    $0x4,%esp
    1c84:	ff 35 08 3f 01 00    	pushl  0x13f08
    1c8a:	ff 35 04 3f 01 00    	pushl  0x13f04
    1c90:	ff 35 00 3f 01 00    	pushl  0x13f00
    1c96:	e8 34 ee ff ff       	call   acf <drawFinderWnd>
    1c9b:	83 c4 10             	add    $0x10,%esp
	deleteClickable(&cm.left_click, initRect(0, 0, 800, 600));
    1c9e:	8d 45 e8             	lea    -0x18(%ebp),%eax
    1ca1:	83 ec 0c             	sub    $0xc,%esp
    1ca4:	68 58 02 00 00       	push   $0x258
    1ca9:	68 20 03 00 00       	push   $0x320
    1cae:	6a 00                	push   $0x0
    1cb0:	6a 00                	push   $0x0
    1cb2:	50                   	push   %eax
    1cb3:	e8 1b 2b 00 00       	call   47d3 <initRect>
    1cb8:	83 c4 1c             	add    $0x1c,%esp
    1cbb:	83 ec 0c             	sub    $0xc,%esp
    1cbe:	ff 75 f4             	pushl  -0xc(%ebp)
    1cc1:	ff 75 f0             	pushl  -0x10(%ebp)
    1cc4:	ff 75 ec             	pushl  -0x14(%ebp)
    1cc7:	ff 75 e8             	pushl  -0x18(%ebp)
    1cca:	68 40 40 01 00       	push   $0x14040
    1ccf:	e8 c4 2c 00 00       	call   4998 <deleteClickable>
    1cd4:	83 c4 20             	add    $0x20,%esp
	addWndEvent(&cm);
    1cd7:	83 ec 0c             	sub    $0xc,%esp
    1cda:	68 40 40 01 00       	push   $0x14040
    1cdf:	e8 c6 f4 ff ff       	call   11aa <addWndEvent>
    1ce4:	83 c4 10             	add    $0x10,%esp
	addListEvent(&cm);
    1ce7:	83 ec 0c             	sub    $0xc,%esp
    1cea:	68 40 40 01 00       	push   $0x14040
    1cef:	e8 5b f4 ff ff       	call   114f <addListEvent>
    1cf4:	83 c4 10             	add    $0x10,%esp
}
    1cf7:	c9                   	leave  
    1cf8:	c3                   	ret    

00001cf9 <deleteFile>:

void deleteFile(char *name)
{
    1cf9:	55                   	push   %ebp
    1cfa:	89 e5                	mov    %esp,%ebp
    1cfc:	83 ec 18             	sub    $0x18,%esp
	printf(0, "currently having sex with %s\n", name);
    1cff:	83 ec 04             	sub    $0x4,%esp
    1d02:	ff 75 08             	pushl  0x8(%ebp)
    1d05:	68 d8 b9 00 00       	push   $0xb9d8
    1d0a:	6a 00                	push   $0x0
    1d0c:	e8 88 34 00 00       	call   5199 <printf>
    1d11:	83 c4 10             	add    $0x10,%esp
	if(unlink(name) < 0){
    1d14:	83 ec 0c             	sub    $0xc,%esp
    1d17:	ff 75 08             	pushl  0x8(%ebp)
    1d1a:	e8 ed 32 00 00       	call   500c <unlink>
    1d1f:	83 c4 10             	add    $0x10,%esp
    1d22:	85 c0                	test   %eax,%eax
    1d24:	0f 89 cb 00 00 00    	jns    1df5 <deleteFile+0xfc>
		if (chdir(name) < 0){
    1d2a:	83 ec 0c             	sub    $0xc,%esp
    1d2d:	ff 75 08             	pushl  0x8(%ebp)
    1d30:	e8 f7 32 00 00       	call   502c <chdir>
    1d35:	83 c4 10             	add    $0x10,%esp
    1d38:	85 c0                	test   %eax,%eax
    1d3a:	79 1a                	jns    1d56 <deleteFile+0x5d>
			printf(2, "rm: %s failed to delete\n", name);
    1d3c:	83 ec 04             	sub    $0x4,%esp
    1d3f:	ff 75 08             	pushl  0x8(%ebp)
    1d42:	68 f6 b9 00 00       	push   $0xb9f6
    1d47:	6a 02                	push   $0x2
    1d49:	e8 4b 34 00 00       	call   5199 <printf>
    1d4e:	83 c4 10             	add    $0x10,%esp
    1d51:	e9 9f 00 00 00       	jmp    1df5 <deleteFile+0xfc>
		}
		else{
			updateFileList(context);
    1d56:	83 ec 04             	sub    $0x4,%esp
    1d59:	ff 35 08 3f 01 00    	pushl  0x13f08
    1d5f:	ff 35 04 3f 01 00    	pushl  0x13f04
    1d65:	ff 35 00 3f 01 00    	pushl  0x13f00
    1d6b:	e8 7f ee ff ff       	call   bef <updateFileList>
    1d70:	83 c4 10             	add    $0x10,%esp
			struct fileItem *p;
			p = fileItemList;
    1d73:	a1 50 07 01 00       	mov    0x10750,%eax
    1d78:	89 45 f4             	mov    %eax,-0xc(%ebp)
			while (p != 0) {
    1d7b:	eb 37                	jmp    1db4 <deleteFile+0xbb>
				deleteFile(p->name);
    1d7d:	8b 45 f4             	mov    -0xc(%ebp),%eax
    1d80:	8b 40 14             	mov    0x14(%eax),%eax
    1d83:	83 ec 0c             	sub    $0xc,%esp
    1d86:	50                   	push   %eax
    1d87:	e8 6d ff ff ff       	call   1cf9 <deleteFile>
    1d8c:	83 c4 10             	add    $0x10,%esp
				updateFileList(context);
    1d8f:	83 ec 04             	sub    $0x4,%esp
    1d92:	ff 35 08 3f 01 00    	pushl  0x13f08
    1d98:	ff 35 04 3f 01 00    	pushl  0x13f04
    1d9e:	ff 35 00 3f 01 00    	pushl  0x13f00
    1da4:	e8 46 ee ff ff       	call   bef <updateFileList>
    1da9:	83 c4 10             	add    $0x10,%esp
				p = fileItemList;
    1dac:	a1 50 07 01 00       	mov    0x10750,%eax
    1db1:	89 45 f4             	mov    %eax,-0xc(%ebp)
		}
		else{
			updateFileList(context);
			struct fileItem *p;
			p = fileItemList;
			while (p != 0) {
    1db4:	83 7d f4 00          	cmpl   $0x0,-0xc(%ebp)
    1db8:	75 c3                	jne    1d7d <deleteFile+0x84>
				deleteFile(p->name);
				updateFileList(context);
				p = fileItemList;
			}
			chdir("..");
    1dba:	83 ec 0c             	sub    $0xc,%esp
    1dbd:	68 0f ba 00 00       	push   $0xba0f
    1dc2:	e8 65 32 00 00       	call   502c <chdir>
    1dc7:	83 c4 10             	add    $0x10,%esp
			updateFileList(context);
    1dca:	83 ec 04             	sub    $0x4,%esp
    1dcd:	ff 35 08 3f 01 00    	pushl  0x13f08
    1dd3:	ff 35 04 3f 01 00    	pushl  0x13f04
    1dd9:	ff 35 00 3f 01 00    	pushl  0x13f00
    1ddf:	e8 0b ee ff ff       	call   bef <updateFileList>
    1de4:	83 c4 10             	add    $0x10,%esp
			unlink(name);
    1de7:	83 ec 0c             	sub    $0xc,%esp
    1dea:	ff 75 08             	pushl  0x8(%ebp)
    1ded:	e8 1a 32 00 00       	call   500c <unlink>
    1df2:	83 c4 10             	add    $0x10,%esp
		}
	}
}
    1df5:	c9                   	leave  
    1df6:	c3                   	ret    

00001df7 <h_deleteFile>:
void h_deleteFile(Point p) {
    1df7:	55                   	push   %ebp
    1df8:	89 e5                	mov    %esp,%ebp
    1dfa:	83 ec 28             	sub    $0x28,%esp
	struct fileItem *q = fileItemList;
    1dfd:	a1 50 07 01 00       	mov    0x10750,%eax
    1e02:	89 45 f4             	mov    %eax,-0xc(%ebp)
	struct fileItem *p1, *head, *p2;
	head = p1 = p2 = 0;
    1e05:	c7 45 e8 00 00 00 00 	movl   $0x0,-0x18(%ebp)
    1e0c:	8b 45 e8             	mov    -0x18(%ebp),%eax
    1e0f:	89 45 f0             	mov    %eax,-0x10(%ebp)
    1e12:	8b 45 f0             	mov    -0x10(%ebp),%eax
    1e15:	89 45 ec             	mov    %eax,-0x14(%ebp)
	printf(0, "hi1\n");
    1e18:	83 ec 08             	sub    $0x8,%esp
    1e1b:	68 12 ba 00 00       	push   $0xba12
    1e20:	6a 00                	push   $0x0
    1e22:	e8 72 33 00 00       	call   5199 <printf>
    1e27:	83 c4 10             	add    $0x10,%esp
	while (q != 0)
    1e2a:	e9 90 00 00 00       	jmp    1ebf <h_deleteFile+0xc8>
	{
		printf(0, "hi2\n");
    1e2f:	83 ec 08             	sub    $0x8,%esp
    1e32:	68 17 ba 00 00       	push   $0xba17
    1e37:	6a 00                	push   $0x0
    1e39:	e8 5b 33 00 00       	call   5199 <printf>
    1e3e:	83 c4 10             	add    $0x10,%esp
		if (q->chosen)
    1e41:	8b 45 f4             	mov    -0xc(%ebp),%eax
    1e44:	8b 40 28             	mov    0x28(%eax),%eax
    1e47:	85 c0                	test   %eax,%eax
    1e49:	74 6b                	je     1eb6 <h_deleteFile+0xbf>
		{
			p1 = (struct fileItem *)malloc(sizeof(struct fileItem));
    1e4b:	83 ec 0c             	sub    $0xc,%esp
    1e4e:	6a 30                	push   $0x30
    1e50:	e8 15 36 00 00       	call   546a <malloc>
    1e55:	83 c4 10             	add    $0x10,%esp
    1e58:	89 45 f0             	mov    %eax,-0x10(%ebp)
			p1->name = (char *)malloc(32 * sizeof(char));
    1e5b:	83 ec 0c             	sub    $0xc,%esp
    1e5e:	6a 20                	push   $0x20
    1e60:	e8 05 36 00 00       	call   546a <malloc>
    1e65:	83 c4 10             	add    $0x10,%esp
    1e68:	89 c2                	mov    %eax,%edx
    1e6a:	8b 45 f0             	mov    -0x10(%ebp),%eax
    1e6d:	89 50 14             	mov    %edx,0x14(%eax)
			strcpy(p1->name, q->name);
    1e70:	8b 45 f4             	mov    -0xc(%ebp),%eax
    1e73:	8b 50 14             	mov    0x14(%eax),%edx
    1e76:	8b 45 f0             	mov    -0x10(%ebp),%eax
    1e79:	8b 40 14             	mov    0x14(%eax),%eax
    1e7c:	83 ec 08             	sub    $0x8,%esp
    1e7f:	52                   	push   %edx
    1e80:	50                   	push   %eax
    1e81:	e8 06 2f 00 00       	call   4d8c <strcpy>
    1e86:	83 c4 10             	add    $0x10,%esp
			if(head == 0)
    1e89:	83 7d ec 00          	cmpl   $0x0,-0x14(%ebp)
    1e8d:	75 0e                	jne    1e9d <h_deleteFile+0xa6>
			{
				head = p1;
    1e8f:	8b 45 f0             	mov    -0x10(%ebp),%eax
    1e92:	89 45 ec             	mov    %eax,-0x14(%ebp)
				p2 = p1;
    1e95:	8b 45 f0             	mov    -0x10(%ebp),%eax
    1e98:	89 45 e8             	mov    %eax,-0x18(%ebp)
    1e9b:	eb 0f                	jmp    1eac <h_deleteFile+0xb5>
			} else {
				p2->next = p1;
    1e9d:	8b 45 e8             	mov    -0x18(%ebp),%eax
    1ea0:	8b 55 f0             	mov    -0x10(%ebp),%edx
    1ea3:	89 50 2c             	mov    %edx,0x2c(%eax)
				p2 = p1;
    1ea6:	8b 45 f0             	mov    -0x10(%ebp),%eax
    1ea9:	89 45 e8             	mov    %eax,-0x18(%ebp)
			}
			p1->next = 0;
    1eac:	8b 45 f0             	mov    -0x10(%ebp),%eax
    1eaf:	c7 40 2c 00 00 00 00 	movl   $0x0,0x2c(%eax)
		}
		q = q->next;
    1eb6:	8b 45 f4             	mov    -0xc(%ebp),%eax
    1eb9:	8b 40 2c             	mov    0x2c(%eax),%eax
    1ebc:	89 45 f4             	mov    %eax,-0xc(%ebp)
void h_deleteFile(Point p) {
	struct fileItem *q = fileItemList;
	struct fileItem *p1, *head, *p2;
	head = p1 = p2 = 0;
	printf(0, "hi1\n");
	while (q != 0)
    1ebf:	83 7d f4 00          	cmpl   $0x0,-0xc(%ebp)
    1ec3:	0f 85 66 ff ff ff    	jne    1e2f <h_deleteFile+0x38>
			}
			p1->next = 0;
		}
		q = q->next;
	}
	p1 = head;
    1ec9:	8b 45 ec             	mov    -0x14(%ebp),%eax
    1ecc:	89 45 f0             	mov    %eax,-0x10(%ebp)
	printf(0, "here, I know what files are chosen, and is going to delete every single one of them! wish me good luck\n");
    1ecf:	83 ec 08             	sub    $0x8,%esp
    1ed2:	68 1c ba 00 00       	push   $0xba1c
    1ed7:	6a 00                	push   $0x0
    1ed9:	e8 bb 32 00 00       	call   5199 <printf>
    1ede:	83 c4 10             	add    $0x10,%esp
	while (p1 != 0)
    1ee1:	eb 1b                	jmp    1efe <h_deleteFile+0x107>
	{
		deleteFile(p1->name);
    1ee3:	8b 45 f0             	mov    -0x10(%ebp),%eax
    1ee6:	8b 40 14             	mov    0x14(%eax),%eax
    1ee9:	83 ec 0c             	sub    $0xc,%esp
    1eec:	50                   	push   %eax
    1eed:	e8 07 fe ff ff       	call   1cf9 <deleteFile>
    1ef2:	83 c4 10             	add    $0x10,%esp
		p1 = p1->next;
    1ef5:	8b 45 f0             	mov    -0x10(%ebp),%eax
    1ef8:	8b 40 2c             	mov    0x2c(%eax),%eax
    1efb:	89 45 f0             	mov    %eax,-0x10(%ebp)
		}
		q = q->next;
	}
	p1 = head;
	printf(0, "here, I know what files are chosen, and is going to delete every single one of them! wish me good luck\n");
	while (p1 != 0)
    1efe:	83 7d f0 00          	cmpl   $0x0,-0x10(%ebp)
    1f02:	75 df                	jne    1ee3 <h_deleteFile+0xec>
	{
		deleteFile(p1->name);
		p1 = p1->next;
	}
	printf(0, "i was so tm fast. :p\n");
    1f04:	83 ec 08             	sub    $0x8,%esp
    1f07:	68 84 ba 00 00       	push   $0xba84
    1f0c:	6a 00                	push   $0x0
    1f0e:	e8 86 32 00 00       	call   5199 <printf>
    1f13:	83 c4 10             	add    $0x10,%esp
	p1 = head;
    1f16:	8b 45 ec             	mov    -0x14(%ebp),%eax
    1f19:	89 45 f0             	mov    %eax,-0x10(%ebp)
	while (p1 != 0) {
    1f1c:	eb 48                	jmp    1f66 <h_deleteFile+0x16f>
		p2 = p1;
    1f1e:	8b 45 f0             	mov    -0x10(%ebp),%eax
    1f21:	89 45 e8             	mov    %eax,-0x18(%ebp)
		printf(0, "freeing %s\n", p2->name);
    1f24:	8b 45 e8             	mov    -0x18(%ebp),%eax
    1f27:	8b 40 14             	mov    0x14(%eax),%eax
    1f2a:	83 ec 04             	sub    $0x4,%esp
    1f2d:	50                   	push   %eax
    1f2e:	68 9a ba 00 00       	push   $0xba9a
    1f33:	6a 00                	push   $0x0
    1f35:	e8 5f 32 00 00       	call   5199 <printf>
    1f3a:	83 c4 10             	add    $0x10,%esp
		p1 = p1->next;
    1f3d:	8b 45 f0             	mov    -0x10(%ebp),%eax
    1f40:	8b 40 2c             	mov    0x2c(%eax),%eax
    1f43:	89 45 f0             	mov    %eax,-0x10(%ebp)
		free(p2->name);
    1f46:	8b 45 e8             	mov    -0x18(%ebp),%eax
    1f49:	8b 40 14             	mov    0x14(%eax),%eax
    1f4c:	83 ec 0c             	sub    $0xc,%esp
    1f4f:	50                   	push   %eax
    1f50:	e8 d4 33 00 00       	call   5329 <free>
    1f55:	83 c4 10             	add    $0x10,%esp
		free(p2);
    1f58:	83 ec 0c             	sub    $0xc,%esp
    1f5b:	ff 75 e8             	pushl  -0x18(%ebp)
    1f5e:	e8 c6 33 00 00       	call   5329 <free>
    1f63:	83 c4 10             	add    $0x10,%esp
		deleteFile(p1->name);
		p1 = p1->next;
	}
	printf(0, "i was so tm fast. :p\n");
	p1 = head;
	while (p1 != 0) {
    1f66:	83 7d f0 00          	cmpl   $0x0,-0x10(%ebp)
    1f6a:	75 b2                	jne    1f1e <h_deleteFile+0x127>
		printf(0, "freeing %s\n", p2->name);
		p1 = p1->next;
		free(p2->name);
		free(p2);
	}
	printf(0, "done freeing!~~~\n");
    1f6c:	83 ec 08             	sub    $0x8,%esp
    1f6f:	68 a6 ba 00 00       	push   $0xbaa6
    1f74:	6a 00                	push   $0x0
    1f76:	e8 1e 32 00 00       	call   5199 <printf>
    1f7b:	83 c4 10             	add    $0x10,%esp
	updateFileList(context);
    1f7e:	83 ec 04             	sub    $0x4,%esp
    1f81:	ff 35 08 3f 01 00    	pushl  0x13f08
    1f87:	ff 35 04 3f 01 00    	pushl  0x13f04
    1f8d:	ff 35 00 3f 01 00    	pushl  0x13f00
    1f93:	e8 57 ec ff ff       	call   bef <updateFileList>
    1f98:	83 c4 10             	add    $0x10,%esp
	printItemList();
    1f9b:	e8 10 f0 ff ff       	call   fb0 <printItemList>
	drawFinderContent(context);
    1fa0:	83 ec 04             	sub    $0x4,%esp
    1fa3:	ff 35 08 3f 01 00    	pushl  0x13f08
    1fa9:	ff 35 04 3f 01 00    	pushl  0x13f04
    1faf:	ff 35 00 3f 01 00    	pushl  0x13f00
    1fb5:	e8 88 ed ff ff       	call   d42 <drawFinderContent>
    1fba:	83 c4 10             	add    $0x10,%esp
	drawFinderWnd(context);
    1fbd:	83 ec 04             	sub    $0x4,%esp
    1fc0:	ff 35 08 3f 01 00    	pushl  0x13f08
    1fc6:	ff 35 04 3f 01 00    	pushl  0x13f04
    1fcc:	ff 35 00 3f 01 00    	pushl  0x13f00
    1fd2:	e8 f8 ea ff ff       	call   acf <drawFinderWnd>
    1fd7:	83 c4 10             	add    $0x10,%esp
	deleteClickable(&cm.left_click, initRect(0, 0, 800, 600));
    1fda:	8d 45 d8             	lea    -0x28(%ebp),%eax
    1fdd:	83 ec 0c             	sub    $0xc,%esp
    1fe0:	68 58 02 00 00       	push   $0x258
    1fe5:	68 20 03 00 00       	push   $0x320
    1fea:	6a 00                	push   $0x0
    1fec:	6a 00                	push   $0x0
    1fee:	50                   	push   %eax
    1fef:	e8 df 27 00 00       	call   47d3 <initRect>
    1ff4:	83 c4 1c             	add    $0x1c,%esp
    1ff7:	83 ec 0c             	sub    $0xc,%esp
    1ffa:	ff 75 e4             	pushl  -0x1c(%ebp)
    1ffd:	ff 75 e0             	pushl  -0x20(%ebp)
    2000:	ff 75 dc             	pushl  -0x24(%ebp)
    2003:	ff 75 d8             	pushl  -0x28(%ebp)
    2006:	68 40 40 01 00       	push   $0x14040
    200b:	e8 88 29 00 00       	call   4998 <deleteClickable>
    2010:	83 c4 20             	add    $0x20,%esp
	addWndEvent(&cm);
    2013:	83 ec 0c             	sub    $0xc,%esp
    2016:	68 40 40 01 00       	push   $0x14040
    201b:	e8 8a f1 ff ff       	call   11aa <addWndEvent>
    2020:	83 c4 10             	add    $0x10,%esp
	addListEvent(&cm);
    2023:	83 ec 0c             	sub    $0xc,%esp
    2026:	68 40 40 01 00       	push   $0x14040
    202b:	e8 1f f1 ff ff       	call   114f <addListEvent>
    2030:	83 c4 10             	add    $0x10,%esp
}
    2033:	c9                   	leave  
    2034:	c3                   	ret    

00002035 <saveRename>:

void saveRename(){
    2035:	55                   	push   %ebp
    2036:	89 e5                	mov    %esp,%ebp
    2038:	53                   	push   %ebx
    2039:	81 ec 14 02 00 00    	sub    $0x214,%esp
	char tempName[MAX_NAME_LEN];
	char tempNameFrom[MAX_NAME_LEN];
	int i;
	strcpy(tempNameFrom, currentPath);
    203f:	83 ec 08             	sub    $0x8,%esp
    2042:	68 40 3f 01 00       	push   $0x13f40
    2047:	8d 85 f4 fd ff ff    	lea    -0x20c(%ebp),%eax
    204d:	50                   	push   %eax
    204e:	e8 39 2d 00 00       	call   4d8c <strcpy>
    2053:	83 c4 10             	add    $0x10,%esp
	strcpy(tempName, currentlyRenaming->name);
    2056:	a1 4c 07 01 00       	mov    0x1074c,%eax
    205b:	8b 40 14             	mov    0x14(%eax),%eax
    205e:	83 ec 08             	sub    $0x8,%esp
    2061:	50                   	push   %eax
    2062:	8d 85 f4 fe ff ff    	lea    -0x10c(%ebp),%eax
    2068:	50                   	push   %eax
    2069:	e8 1e 2d 00 00       	call   4d8c <strcpy>
    206e:	83 c4 10             	add    $0x10,%esp
	strcpy(tempNameFrom + strlen(tempNameFrom), renameFrom);
    2071:	83 ec 0c             	sub    $0xc,%esp
    2074:	8d 85 f4 fd ff ff    	lea    -0x20c(%ebp),%eax
    207a:	50                   	push   %eax
    207b:	e8 7b 2d 00 00       	call   4dfb <strlen>
    2080:	83 c4 10             	add    $0x10,%esp
    2083:	89 c2                	mov    %eax,%edx
    2085:	8d 85 f4 fd ff ff    	lea    -0x20c(%ebp),%eax
    208b:	01 d0                	add    %edx,%eax
    208d:	83 ec 08             	sub    $0x8,%esp
    2090:	68 00 3e 01 00       	push   $0x13e00
    2095:	50                   	push   %eax
    2096:	e8 f1 2c 00 00       	call   4d8c <strcpy>
    209b:	83 c4 10             	add    $0x10,%esp
	printf(0, "why? %s", tempName);
    209e:	83 ec 04             	sub    $0x4,%esp
    20a1:	8d 85 f4 fe ff ff    	lea    -0x10c(%ebp),%eax
    20a7:	50                   	push   %eax
    20a8:	68 b8 ba 00 00       	push   $0xbab8
    20ad:	6a 00                	push   $0x0
    20af:	e8 e5 30 00 00       	call   5199 <printf>
    20b4:	83 c4 10             	add    $0x10,%esp
	if(currentlyRenaming->st.type != T_DIR){
    20b7:	a1 4c 07 01 00       	mov    0x1074c,%eax
    20bc:	0f b7 00             	movzwl (%eax),%eax
    20bf:	66 83 f8 01          	cmp    $0x1,%ax
    20c3:	0f 84 8c 00 00 00    	je     2155 <saveRename+0x120>
		for(i = 0; i < strlen(tempName); i++){
    20c9:	c7 45 f4 00 00 00 00 	movl   $0x0,-0xc(%ebp)
    20d0:	eb 4e                	jmp    2120 <saveRename+0xeb>
			if(tempName[i] == '.'){
    20d2:	8d 95 f4 fe ff ff    	lea    -0x10c(%ebp),%edx
    20d8:	8b 45 f4             	mov    -0xc(%ebp),%eax
    20db:	01 d0                	add    %edx,%eax
    20dd:	0f b6 00             	movzbl (%eax),%eax
    20e0:	3c 2e                	cmp    $0x2e,%al
    20e2:	75 38                	jne    211c <saveRename+0xe7>
				if(pasteJustFile(tempNameFrom, tempName)){
    20e4:	83 ec 08             	sub    $0x8,%esp
    20e7:	8d 85 f4 fe ff ff    	lea    -0x10c(%ebp),%eax
    20ed:	50                   	push   %eax
    20ee:	8d 85 f4 fd ff ff    	lea    -0x20c(%ebp),%eax
    20f4:	50                   	push   %eax
    20f5:	e8 4c 03 00 00       	call   2446 <pasteJustFile>
    20fa:	83 c4 10             	add    $0x10,%esp
    20fd:	85 c0                	test   %eax,%eax
    20ff:	0f 84 98 00 00 00    	je     219d <saveRename+0x168>
					deleteFile(tempNameFrom);
    2105:	83 ec 0c             	sub    $0xc,%esp
    2108:	8d 85 f4 fd ff ff    	lea    -0x20c(%ebp),%eax
    210e:	50                   	push   %eax
    210f:	e8 e5 fb ff ff       	call   1cf9 <deleteFile>
    2114:	83 c4 10             	add    $0x10,%esp
				}
				return;
    2117:	e9 81 00 00 00       	jmp    219d <saveRename+0x168>
	strcpy(tempNameFrom, currentPath);
	strcpy(tempName, currentlyRenaming->name);
	strcpy(tempNameFrom + strlen(tempNameFrom), renameFrom);
	printf(0, "why? %s", tempName);
	if(currentlyRenaming->st.type != T_DIR){
		for(i = 0; i < strlen(tempName); i++){
    211c:	83 45 f4 01          	addl   $0x1,-0xc(%ebp)
    2120:	8b 5d f4             	mov    -0xc(%ebp),%ebx
    2123:	83 ec 0c             	sub    $0xc,%esp
    2126:	8d 85 f4 fe ff ff    	lea    -0x10c(%ebp),%eax
    212c:	50                   	push   %eax
    212d:	e8 c9 2c 00 00       	call   4dfb <strlen>
    2132:	83 c4 10             	add    $0x10,%esp
    2135:	39 c3                	cmp    %eax,%ebx
    2137:	72 99                	jb     20d2 <saveRename+0x9d>
					deleteFile(tempNameFrom);
				}
				return;
			}
		}
		tempName[i] = '.';
    2139:	8d 95 f4 fe ff ff    	lea    -0x10c(%ebp),%edx
    213f:	8b 45 f4             	mov    -0xc(%ebp),%eax
    2142:	01 d0                	add    %edx,%eax
    2144:	c6 00 2e             	movb   $0x2e,(%eax)
		tempName[i + 1] = 0;
    2147:	8b 45 f4             	mov    -0xc(%ebp),%eax
    214a:	83 c0 01             	add    $0x1,%eax
    214d:	c6 84 05 f4 fe ff ff 	movb   $0x0,-0x10c(%ebp,%eax,1)
    2154:	00 
	}
	printf(0, "renameFrom is %s\n", tempNameFrom);
    2155:	83 ec 04             	sub    $0x4,%esp
    2158:	8d 85 f4 fd ff ff    	lea    -0x20c(%ebp),%eax
    215e:	50                   	push   %eax
    215f:	68 c0 ba 00 00       	push   $0xbac0
    2164:	6a 00                	push   $0x0
    2166:	e8 2e 30 00 00       	call   5199 <printf>
    216b:	83 c4 10             	add    $0x10,%esp
	if(pasteJustFile(tempNameFrom, tempName))
    216e:	83 ec 08             	sub    $0x8,%esp
    2171:	8d 85 f4 fe ff ff    	lea    -0x10c(%ebp),%eax
    2177:	50                   	push   %eax
    2178:	8d 85 f4 fd ff ff    	lea    -0x20c(%ebp),%eax
    217e:	50                   	push   %eax
    217f:	e8 c2 02 00 00       	call   2446 <pasteJustFile>
    2184:	83 c4 10             	add    $0x10,%esp
    2187:	85 c0                	test   %eax,%eax
    2189:	74 12                	je     219d <saveRename+0x168>
		deleteFile(tempNameFrom);
    218b:	83 ec 0c             	sub    $0xc,%esp
    218e:	8d 85 f4 fd ff ff    	lea    -0x20c(%ebp),%eax
    2194:	50                   	push   %eax
    2195:	e8 5f fb ff ff       	call   1cf9 <deleteFile>
    219a:	83 c4 10             	add    $0x10,%esp
}
    219d:	8b 5d fc             	mov    -0x4(%ebp),%ebx
    21a0:	c9                   	leave  
    21a1:	c3                   	ret    

000021a2 <unrename>:

void unrename(){
    21a2:	55                   	push   %ebp
    21a3:	89 e5                	mov    %esp,%ebp
    21a5:	83 ec 18             	sub    $0x18,%esp
	printf(0, "renaming! currentlyRenaming: %s\n", currentlyRenaming->name);
    21a8:	a1 4c 07 01 00       	mov    0x1074c,%eax
    21ad:	8b 40 14             	mov    0x14(%eax),%eax
    21b0:	83 ec 04             	sub    $0x4,%esp
    21b3:	50                   	push   %eax
    21b4:	68 d4 ba 00 00       	push   $0xbad4
    21b9:	6a 00                	push   $0x0
    21bb:	e8 d9 2f 00 00       	call   5199 <printf>
    21c0:	83 c4 10             	add    $0x10,%esp
	saveRename();
    21c3:	e8 6d fe ff ff       	call   2035 <saveRename>
	currentlyRenaming->chosen = 1;
    21c8:	a1 4c 07 01 00       	mov    0x1074c,%eax
    21cd:	c7 40 28 01 00 00 00 	movl   $0x1,0x28(%eax)
	currentlyRenaming = 0;
    21d4:	c7 05 4c 07 01 00 00 	movl   $0x0,0x1074c
    21db:	00 00 00 
	renaming = 0;
    21de:	c7 05 54 40 01 00 00 	movl   $0x0,0x14054
    21e5:	00 00 00 
	freeFileItemList();
    21e8:	e8 b0 e1 ff ff       	call   39d <freeFileItemList>
	list(".");
    21ed:	83 ec 0c             	sub    $0xc,%esp
    21f0:	68 c8 b8 00 00       	push   $0xb8c8
    21f5:	e8 8d e2 ff ff       	call   487 <list>
    21fa:	83 c4 10             	add    $0x10,%esp
	printItemList();
    21fd:	e8 ae ed ff ff       	call   fb0 <printItemList>
	drawFinderContent(context);
    2202:	83 ec 04             	sub    $0x4,%esp
    2205:	ff 35 08 3f 01 00    	pushl  0x13f08
    220b:	ff 35 04 3f 01 00    	pushl  0x13f04
    2211:	ff 35 00 3f 01 00    	pushl  0x13f00
    2217:	e8 26 eb ff ff       	call   d42 <drawFinderContent>
    221c:	83 c4 10             	add    $0x10,%esp
	drawFinderWnd(context);
    221f:	83 ec 04             	sub    $0x4,%esp
    2222:	ff 35 08 3f 01 00    	pushl  0x13f08
    2228:	ff 35 04 3f 01 00    	pushl  0x13f04
    222e:	ff 35 00 3f 01 00    	pushl  0x13f00
    2234:	e8 96 e8 ff ff       	call   acf <drawFinderWnd>
    2239:	83 c4 10             	add    $0x10,%esp
	deleteClickable(&cm.left_click, initRect(0, 0, 800, 600));
    223c:	8d 45 e8             	lea    -0x18(%ebp),%eax
    223f:	83 ec 0c             	sub    $0xc,%esp
    2242:	68 58 02 00 00       	push   $0x258
    2247:	68 20 03 00 00       	push   $0x320
    224c:	6a 00                	push   $0x0
    224e:	6a 00                	push   $0x0
    2250:	50                   	push   %eax
    2251:	e8 7d 25 00 00       	call   47d3 <initRect>
    2256:	83 c4 1c             	add    $0x1c,%esp
    2259:	83 ec 0c             	sub    $0xc,%esp
    225c:	ff 75 f4             	pushl  -0xc(%ebp)
    225f:	ff 75 f0             	pushl  -0x10(%ebp)
    2262:	ff 75 ec             	pushl  -0x14(%ebp)
    2265:	ff 75 e8             	pushl  -0x18(%ebp)
    2268:	68 40 40 01 00       	push   $0x14040
    226d:	e8 26 27 00 00       	call   4998 <deleteClickable>
    2272:	83 c4 20             	add    $0x20,%esp
	addWndEvent(&cm);
    2275:	83 ec 0c             	sub    $0xc,%esp
    2278:	68 40 40 01 00       	push   $0x14040
    227d:	e8 28 ef ff ff       	call   11aa <addWndEvent>
    2282:	83 c4 10             	add    $0x10,%esp
	addListEvent(&cm);
    2285:	83 ec 0c             	sub    $0xc,%esp
    2288:	68 40 40 01 00       	push   $0x14040
    228d:	e8 bd ee ff ff       	call   114f <addListEvent>
    2292:	83 c4 10             	add    $0x10,%esp
}
    2295:	c9                   	leave  
    2296:	c3                   	ret    

00002297 <copyFile>:

void copyFile(){
    2297:	55                   	push   %ebp
    2298:	89 e5                	mov    %esp,%ebp
    229a:	56                   	push   %esi
    229b:	53                   	push   %ebx
    229c:	83 ec 10             	sub    $0x10,%esp
	int fd;
	struct fileItem *p = fileItemList;
    229f:	a1 50 07 01 00       	mov    0x10750,%eax
    22a4:	89 45 f4             	mov    %eax,-0xc(%ebp)
	while(p != 0){
    22a7:	e9 07 01 00 00       	jmp    23b3 <copyFile+0x11c>
		if (p->chosen == 1){
    22ac:	8b 45 f4             	mov    -0xc(%ebp),%eax
    22af:	8b 40 28             	mov    0x28(%eax),%eax
    22b2:	83 f8 01             	cmp    $0x1,%eax
    22b5:	0f 85 ef 00 00 00    	jne    23aa <copyFile+0x113>
			if(lenOfWaited >= MAX_COPY_SIZE){
    22bb:	a1 58 40 01 00       	mov    0x14058,%eax
    22c0:	83 f8 07             	cmp    $0x7,%eax
    22c3:	7e 1d                	jle    22e2 <copyFile+0x4b>
				printf(0, "Too Much Files To Copy %d\n", lenOfWaited);
    22c5:	a1 58 40 01 00       	mov    0x14058,%eax
    22ca:	83 ec 04             	sub    $0x4,%esp
    22cd:	50                   	push   %eax
    22ce:	68 f5 ba 00 00       	push   $0xbaf5
    22d3:	6a 00                	push   $0x0
    22d5:	e8 bf 2e 00 00       	call   5199 <printf>
    22da:	83 c4 10             	add    $0x10,%esp
    22dd:	e9 c8 00 00 00       	jmp    23aa <copyFile+0x113>
			}
			else{
				if((fd = open(p->name, O_RDONLY)) >= 0){
    22e2:	8b 45 f4             	mov    -0xc(%ebp),%eax
    22e5:	8b 40 14             	mov    0x14(%eax),%eax
    22e8:	83 ec 08             	sub    $0x8,%esp
    22eb:	6a 00                	push   $0x0
    22ed:	50                   	push   %eax
    22ee:	e8 09 2d 00 00       	call   4ffc <open>
    22f3:	83 c4 10             	add    $0x10,%esp
    22f6:	89 45 f0             	mov    %eax,-0x10(%ebp)
    22f9:	83 7d f0 00          	cmpl   $0x0,-0x10(%ebp)
    22fd:	0f 88 8e 00 00 00    	js     2391 <copyFile+0xfa>
					strcpy(filesWaited[lenOfWaited], currentPath);
    2303:	a1 58 40 01 00       	mov    0x14058,%eax
    2308:	c1 e0 08             	shl    $0x8,%eax
    230b:	05 00 36 01 00       	add    $0x13600,%eax
    2310:	83 ec 08             	sub    $0x8,%esp
    2313:	68 40 3f 01 00       	push   $0x13f40
    2318:	50                   	push   %eax
    2319:	e8 6e 2a 00 00       	call   4d8c <strcpy>
    231e:	83 c4 10             	add    $0x10,%esp
					strcpy(filesWaited[lenOfWaited] + strlen(currentPath), p->name);
    2321:	8b 45 f4             	mov    -0xc(%ebp),%eax
    2324:	8b 58 14             	mov    0x14(%eax),%ebx
    2327:	a1 58 40 01 00       	mov    0x14058,%eax
    232c:	c1 e0 08             	shl    $0x8,%eax
    232f:	8d b0 00 36 01 00    	lea    0x13600(%eax),%esi
    2335:	83 ec 0c             	sub    $0xc,%esp
    2338:	68 40 3f 01 00       	push   $0x13f40
    233d:	e8 b9 2a 00 00       	call   4dfb <strlen>
    2342:	83 c4 10             	add    $0x10,%esp
    2345:	01 f0                	add    %esi,%eax
    2347:	83 ec 08             	sub    $0x8,%esp
    234a:	53                   	push   %ebx
    234b:	50                   	push   %eax
    234c:	e8 3b 2a 00 00       	call   4d8c <strcpy>
    2351:	83 c4 10             	add    $0x10,%esp
					printf(0, "Open File %s Succeed\n", filesWaited[lenOfWaited]);
    2354:	a1 58 40 01 00       	mov    0x14058,%eax
    2359:	c1 e0 08             	shl    $0x8,%eax
    235c:	05 00 36 01 00       	add    $0x13600,%eax
    2361:	83 ec 04             	sub    $0x4,%esp
    2364:	50                   	push   %eax
    2365:	68 10 bb 00 00       	push   $0xbb10
    236a:	6a 00                	push   $0x0
    236c:	e8 28 2e 00 00       	call   5199 <printf>
    2371:	83 c4 10             	add    $0x10,%esp
					lenOfWaited++;
    2374:	a1 58 40 01 00       	mov    0x14058,%eax
    2379:	83 c0 01             	add    $0x1,%eax
    237c:	a3 58 40 01 00       	mov    %eax,0x14058
					close(fd);
    2381:	83 ec 0c             	sub    $0xc,%esp
    2384:	ff 75 f0             	pushl  -0x10(%ebp)
    2387:	e8 58 2c 00 00       	call   4fe4 <close>
    238c:	83 c4 10             	add    $0x10,%esp
    238f:	eb 19                	jmp    23aa <copyFile+0x113>
				}
				else{
					printf(0, "Open File %s Failed\n", p->name);
    2391:	8b 45 f4             	mov    -0xc(%ebp),%eax
    2394:	8b 40 14             	mov    0x14(%eax),%eax
    2397:	83 ec 04             	sub    $0x4,%esp
    239a:	50                   	push   %eax
    239b:	68 26 bb 00 00       	push   $0xbb26
    23a0:	6a 00                	push   $0x0
    23a2:	e8 f2 2d 00 00       	call   5199 <printf>
    23a7:	83 c4 10             	add    $0x10,%esp
				}
			}
		}
		p = p->next;
    23aa:	8b 45 f4             	mov    -0xc(%ebp),%eax
    23ad:	8b 40 2c             	mov    0x2c(%eax),%eax
    23b0:	89 45 f4             	mov    %eax,-0xc(%ebp)
}

void copyFile(){
	int fd;
	struct fileItem *p = fileItemList;
	while(p != 0){
    23b3:	83 7d f4 00          	cmpl   $0x0,-0xc(%ebp)
    23b7:	0f 85 ef fe ff ff    	jne    22ac <copyFile+0x15>
				}
			}
		}
		p = p->next;
	}
}
    23bd:	8d 65 f8             	lea    -0x8(%ebp),%esp
    23c0:	5b                   	pop    %ebx
    23c1:	5e                   	pop    %esi
    23c2:	5d                   	pop    %ebp
    23c3:	c3                   	ret    

000023c4 <h_copyFile>:

void h_copyFile(Point p){
    23c4:	55                   	push   %ebp
    23c5:	89 e5                	mov    %esp,%ebp
    23c7:	83 ec 08             	sub    $0x8,%esp
	copyOrCut = 0;
    23ca:	c7 05 44 07 01 00 00 	movl   $0x0,0x10744
    23d1:	00 00 00 
	lenOfWaited = 0;
    23d4:	c7 05 58 40 01 00 00 	movl   $0x0,0x14058
    23db:	00 00 00 
	copyFile();
    23de:	e8 b4 fe ff ff       	call   2297 <copyFile>
}
    23e3:	c9                   	leave  
    23e4:	c3                   	ret    

000023e5 <moveFile>:

void moveFile(){
    23e5:	55                   	push   %ebp
    23e6:	89 e5                	mov    %esp,%ebp
    23e8:	83 ec 18             	sub    $0x18,%esp
	int i;
	for (i = 0; i < lenOfWaited; i++)
    23eb:	c7 45 f4 00 00 00 00 	movl   $0x0,-0xc(%ebp)
    23f2:	eb 1b                	jmp    240f <moveFile+0x2a>
		deleteFile(filesWaited[i]);
    23f4:	8b 45 f4             	mov    -0xc(%ebp),%eax
    23f7:	c1 e0 08             	shl    $0x8,%eax
    23fa:	05 00 36 01 00       	add    $0x13600,%eax
    23ff:	83 ec 0c             	sub    $0xc,%esp
    2402:	50                   	push   %eax
    2403:	e8 f1 f8 ff ff       	call   1cf9 <deleteFile>
    2408:	83 c4 10             	add    $0x10,%esp
	copyFile();
}

void moveFile(){
	int i;
	for (i = 0; i < lenOfWaited; i++)
    240b:	83 45 f4 01          	addl   $0x1,-0xc(%ebp)
    240f:	a1 58 40 01 00       	mov    0x14058,%eax
    2414:	39 45 f4             	cmp    %eax,-0xc(%ebp)
    2417:	7c db                	jl     23f4 <moveFile+0xf>
		deleteFile(filesWaited[i]);
	lenOfWaited = 0;
    2419:	c7 05 58 40 01 00 00 	movl   $0x0,0x14058
    2420:	00 00 00 
}
    2423:	c9                   	leave  
    2424:	c3                   	ret    

00002425 <h_cutFile>:

void h_cutFile(Point p){
    2425:	55                   	push   %ebp
    2426:	89 e5                	mov    %esp,%ebp
    2428:	83 ec 08             	sub    $0x8,%esp
	copyOrCut = 1;
    242b:	c7 05 44 07 01 00 01 	movl   $0x1,0x10744
    2432:	00 00 00 
	lenOfWaited = 0;
    2435:	c7 05 58 40 01 00 00 	movl   $0x0,0x14058
    243c:	00 00 00 
	copyFile();
    243f:	e8 53 fe ff ff       	call   2297 <copyFile>
}
    2444:	c9                   	leave  
    2445:	c3                   	ret    

00002446 <pasteJustFile>:

int pasteJustFile(char *src, char *filename){
    2446:	55                   	push   %ebp
    2447:	89 e5                	mov    %esp,%ebp
    2449:	81 ec 28 02 00 00    	sub    $0x228,%esp
	printf(0, "currentPath: %s, copying from %s, to %s~\n", currentPath, src, filename);
    244f:	83 ec 0c             	sub    $0xc,%esp
    2452:	ff 75 0c             	pushl  0xc(%ebp)
    2455:	ff 75 08             	pushl  0x8(%ebp)
    2458:	68 40 3f 01 00       	push   $0x13f40
    245d:	68 3c bb 00 00       	push   $0xbb3c
    2462:	6a 00                	push   $0x0
    2464:	e8 30 2d 00 00       	call   5199 <printf>
    2469:	83 c4 20             	add    $0x20,%esp
	int size = 0;
    246c:	c7 45 dc 00 00 00 00 	movl   $0x0,-0x24(%ebp)
	int file_src, file_dest;
	struct fileItem *p;
	struct fileItem *p1, *head, *p2;
	char* buff = (char*)malloc(4096 * sizeof(char));
    2473:	83 ec 0c             	sub    $0xc,%esp
    2476:	68 00 10 00 00       	push   $0x1000
    247b:	e8 ea 2f 00 00       	call   546a <malloc>
    2480:	83 c4 10             	add    $0x10,%esp
    2483:	89 45 d8             	mov    %eax,-0x28(%ebp)
	char tempSrc[MAX_NAME_LEN];
	char tempName[MAX_NAME_LEN];
	memset(tempName, '\0', sizeof(tempName)/sizeof(char));
    2486:	83 ec 04             	sub    $0x4,%esp
    2489:	68 00 01 00 00       	push   $0x100
    248e:	6a 00                	push   $0x0
    2490:	8d 85 d8 fd ff ff    	lea    -0x228(%ebp),%eax
    2496:	50                   	push   %eax
    2497:	e8 86 29 00 00       	call   4e22 <memset>
    249c:	83 c4 10             	add    $0x10,%esp
	memset(tempSrc, '\0', sizeof(tempSrc)/sizeof(char));
    249f:	83 ec 04             	sub    $0x4,%esp
    24a2:	68 00 01 00 00       	push   $0x100
    24a7:	6a 00                	push   $0x0
    24a9:	8d 85 d8 fe ff ff    	lea    -0x128(%ebp),%eax
    24af:	50                   	push   %eax
    24b0:	e8 6d 29 00 00       	call   4e22 <memset>
    24b5:	83 c4 10             	add    $0x10,%esp
	memset(buff, 0, 4096);
    24b8:	83 ec 04             	sub    $0x4,%esp
    24bb:	68 00 10 00 00       	push   $0x1000
    24c0:	6a 00                	push   $0x0
    24c2:	ff 75 d8             	pushl  -0x28(%ebp)
    24c5:	e8 58 29 00 00       	call   4e22 <memset>
    24ca:	83 c4 10             	add    $0x10,%esp
	if(chdir(filename) >= 0){
    24cd:	83 ec 0c             	sub    $0xc,%esp
    24d0:	ff 75 0c             	pushl  0xc(%ebp)
    24d3:	e8 54 2b 00 00       	call   502c <chdir>
    24d8:	83 c4 10             	add    $0x10,%esp
    24db:	85 c0                	test   %eax,%eax
    24dd:	78 3d                	js     251c <pasteJustFile+0xd6>
		printf(0, "Directory %s already exist\n", filename);
    24df:	83 ec 04             	sub    $0x4,%esp
    24e2:	ff 75 0c             	pushl  0xc(%ebp)
    24e5:	68 66 bb 00 00       	push   $0xbb66
    24ea:	6a 00                	push   $0x0
    24ec:	e8 a8 2c 00 00       	call   5199 <printf>
    24f1:	83 c4 10             	add    $0x10,%esp
		free(buff);
    24f4:	83 ec 0c             	sub    $0xc,%esp
    24f7:	ff 75 d8             	pushl  -0x28(%ebp)
    24fa:	e8 2a 2e 00 00       	call   5329 <free>
    24ff:	83 c4 10             	add    $0x10,%esp
		chdir("..");
    2502:	83 ec 0c             	sub    $0xc,%esp
    2505:	68 0f ba 00 00       	push   $0xba0f
    250a:	e8 1d 2b 00 00       	call   502c <chdir>
    250f:	83 c4 10             	add    $0x10,%esp
		return 0;
    2512:	b8 00 00 00 00       	mov    $0x0,%eax
    2517:	e9 ee 03 00 00       	jmp    290a <pasteJustFile+0x4c4>
	}
	else if(chdir(src) >= 0){
    251c:	83 ec 0c             	sub    $0xc,%esp
    251f:	ff 75 08             	pushl  0x8(%ebp)
    2522:	e8 05 2b 00 00       	call   502c <chdir>
    2527:	83 c4 10             	add    $0x10,%esp
    252a:	85 c0                	test   %eax,%eax
    252c:	0f 88 8b 02 00 00    	js     27bd <pasteJustFile+0x377>
		freeFileItemList();
    2532:	e8 66 de ff ff       	call   39d <freeFileItemList>
		list(".");
    2537:	83 ec 0c             	sub    $0xc,%esp
    253a:	68 c8 b8 00 00       	push   $0xb8c8
    253f:	e8 43 df ff ff       	call   487 <list>
    2544:	83 c4 10             	add    $0x10,%esp
		chdir(currentPath);
    2547:	83 ec 0c             	sub    $0xc,%esp
    254a:	68 40 3f 01 00       	push   $0x13f40
    254f:	e8 d8 2a 00 00       	call   502c <chdir>
    2554:	83 c4 10             	add    $0x10,%esp
		mkdir(filename);
    2557:	83 ec 0c             	sub    $0xc,%esp
    255a:	ff 75 0c             	pushl  0xc(%ebp)
    255d:	e8 c2 2a 00 00       	call   5024 <mkdir>
    2562:	83 c4 10             	add    $0x10,%esp
		updatePath(filename);
    2565:	83 ec 0c             	sub    $0xc,%esp
    2568:	ff 75 0c             	pushl  0xc(%ebp)
    256b:	e8 90 f1 ff ff       	call   1700 <updatePath>
    2570:	83 c4 10             	add    $0x10,%esp
		chdir(currentPath);
    2573:	83 ec 0c             	sub    $0xc,%esp
    2576:	68 40 3f 01 00       	push   $0x13f40
    257b:	e8 ac 2a 00 00       	call   502c <chdir>
    2580:	83 c4 10             	add    $0x10,%esp
        head = p1 = p2 = 0;
    2583:	c7 45 e0 00 00 00 00 	movl   $0x0,-0x20(%ebp)
    258a:	8b 45 e0             	mov    -0x20(%ebp),%eax
    258d:	89 45 e8             	mov    %eax,-0x18(%ebp)
    2590:	8b 45 e8             	mov    -0x18(%ebp),%eax
    2593:	89 45 e4             	mov    %eax,-0x1c(%ebp)
        p = fileItemList;
    2596:	a1 50 07 01 00       	mov    0x10750,%eax
    259b:	89 45 ec             	mov    %eax,-0x14(%ebp)
	    printf(0, "hello1\n");
    259e:	83 ec 08             	sub    $0x8,%esp
    25a1:	68 82 bb 00 00       	push   $0xbb82
    25a6:	6a 00                	push   $0x0
    25a8:	e8 ec 2b 00 00       	call   5199 <printf>
    25ad:	83 c4 10             	add    $0x10,%esp
		while (p != 0)
    25b0:	e9 86 00 00 00       	jmp    263b <pasteJustFile+0x1f5>
		{
			printf(0, "hello2\n");
    25b5:	83 ec 08             	sub    $0x8,%esp
    25b8:	68 8a bb 00 00       	push   $0xbb8a
    25bd:	6a 00                	push   $0x0
    25bf:	e8 d5 2b 00 00       	call   5199 <printf>
    25c4:	83 c4 10             	add    $0x10,%esp
			p1 = (struct fileItem *)malloc(sizeof(struct fileItem));
    25c7:	83 ec 0c             	sub    $0xc,%esp
    25ca:	6a 30                	push   $0x30
    25cc:	e8 99 2e 00 00       	call   546a <malloc>
    25d1:	83 c4 10             	add    $0x10,%esp
    25d4:	89 45 e8             	mov    %eax,-0x18(%ebp)
			p1->name = (char *)malloc(32 * sizeof(char));
    25d7:	83 ec 0c             	sub    $0xc,%esp
    25da:	6a 20                	push   $0x20
    25dc:	e8 89 2e 00 00       	call   546a <malloc>
    25e1:	83 c4 10             	add    $0x10,%esp
    25e4:	89 c2                	mov    %eax,%edx
    25e6:	8b 45 e8             	mov    -0x18(%ebp),%eax
    25e9:	89 50 14             	mov    %edx,0x14(%eax)
			strcpy(p1->name, p->name);
    25ec:	8b 45 ec             	mov    -0x14(%ebp),%eax
    25ef:	8b 50 14             	mov    0x14(%eax),%edx
    25f2:	8b 45 e8             	mov    -0x18(%ebp),%eax
    25f5:	8b 40 14             	mov    0x14(%eax),%eax
    25f8:	83 ec 08             	sub    $0x8,%esp
    25fb:	52                   	push   %edx
    25fc:	50                   	push   %eax
    25fd:	e8 8a 27 00 00       	call   4d8c <strcpy>
    2602:	83 c4 10             	add    $0x10,%esp
			if(head == 0)
    2605:	83 7d e4 00          	cmpl   $0x0,-0x1c(%ebp)
    2609:	75 0e                	jne    2619 <pasteJustFile+0x1d3>
			{
				head = p1;
    260b:	8b 45 e8             	mov    -0x18(%ebp),%eax
    260e:	89 45 e4             	mov    %eax,-0x1c(%ebp)
				p2 = p1;
    2611:	8b 45 e8             	mov    -0x18(%ebp),%eax
    2614:	89 45 e0             	mov    %eax,-0x20(%ebp)
    2617:	eb 0f                	jmp    2628 <pasteJustFile+0x1e2>
			} else {
				p2->next = p1;
    2619:	8b 45 e0             	mov    -0x20(%ebp),%eax
    261c:	8b 55 e8             	mov    -0x18(%ebp),%edx
    261f:	89 50 2c             	mov    %edx,0x2c(%eax)
				p2 = p1;
    2622:	8b 45 e8             	mov    -0x18(%ebp),%eax
    2625:	89 45 e0             	mov    %eax,-0x20(%ebp)
			}
			p1->next = 0;
    2628:	8b 45 e8             	mov    -0x18(%ebp),%eax
    262b:	c7 40 2c 00 00 00 00 	movl   $0x0,0x2c(%eax)
			p = p->next;
    2632:	8b 45 ec             	mov    -0x14(%ebp),%eax
    2635:	8b 40 2c             	mov    0x2c(%eax),%eax
    2638:	89 45 ec             	mov    %eax,-0x14(%ebp)
		updatePath(filename);
		chdir(currentPath);
        head = p1 = p2 = 0;
        p = fileItemList;
	    printf(0, "hello1\n");
		while (p != 0)
    263b:	83 7d ec 00          	cmpl   $0x0,-0x14(%ebp)
    263f:	0f 85 70 ff ff ff    	jne    25b5 <pasteJustFile+0x16f>
				p2 = p1;
			}
			p1->next = 0;
			p = p->next;
		}
		p1 = head;
    2645:	8b 45 e4             	mov    -0x1c(%ebp),%eax
    2648:	89 45 e8             	mov    %eax,-0x18(%ebp)
		while(p1 != 0){
    264b:	e9 e8 00 00 00       	jmp    2738 <pasteJustFile+0x2f2>
			strcpy(tempSrc, src);
    2650:	83 ec 08             	sub    $0x8,%esp
    2653:	ff 75 08             	pushl  0x8(%ebp)
    2656:	8d 85 d8 fe ff ff    	lea    -0x128(%ebp),%eax
    265c:	50                   	push   %eax
    265d:	e8 2a 27 00 00       	call   4d8c <strcpy>
    2662:	83 c4 10             	add    $0x10,%esp
			strcpy(tempName, p1->name);
    2665:	8b 45 e8             	mov    -0x18(%ebp),%eax
    2668:	8b 40 14             	mov    0x14(%eax),%eax
    266b:	83 ec 08             	sub    $0x8,%esp
    266e:	50                   	push   %eax
    266f:	8d 85 d8 fd ff ff    	lea    -0x228(%ebp),%eax
    2675:	50                   	push   %eax
    2676:	e8 11 27 00 00       	call   4d8c <strcpy>
    267b:	83 c4 10             	add    $0x10,%esp
			tempSrc[strlen(tempSrc) + 1] = 0;
    267e:	83 ec 0c             	sub    $0xc,%esp
    2681:	8d 85 d8 fe ff ff    	lea    -0x128(%ebp),%eax
    2687:	50                   	push   %eax
    2688:	e8 6e 27 00 00       	call   4dfb <strlen>
    268d:	83 c4 10             	add    $0x10,%esp
    2690:	83 c0 01             	add    $0x1,%eax
    2693:	c6 84 05 d8 fe ff ff 	movb   $0x0,-0x128(%ebp,%eax,1)
    269a:	00 
			tempSrc[strlen(tempSrc)] = '/';
    269b:	83 ec 0c             	sub    $0xc,%esp
    269e:	8d 85 d8 fe ff ff    	lea    -0x128(%ebp),%eax
    26a4:	50                   	push   %eax
    26a5:	e8 51 27 00 00       	call   4dfb <strlen>
    26aa:	83 c4 10             	add    $0x10,%esp
    26ad:	c6 84 05 d8 fe ff ff 	movb   $0x2f,-0x128(%ebp,%eax,1)
    26b4:	2f 
			strcpy(tempSrc+strlen(tempSrc), tempName);
    26b5:	83 ec 0c             	sub    $0xc,%esp
    26b8:	8d 85 d8 fe ff ff    	lea    -0x128(%ebp),%eax
    26be:	50                   	push   %eax
    26bf:	e8 37 27 00 00       	call   4dfb <strlen>
    26c4:	83 c4 10             	add    $0x10,%esp
    26c7:	89 c2                	mov    %eax,%edx
    26c9:	8d 85 d8 fe ff ff    	lea    -0x128(%ebp),%eax
    26cf:	01 c2                	add    %eax,%edx
    26d1:	83 ec 08             	sub    $0x8,%esp
    26d4:	8d 85 d8 fd ff ff    	lea    -0x228(%ebp),%eax
    26da:	50                   	push   %eax
    26db:	52                   	push   %edx
    26dc:	e8 ab 26 00 00       	call   4d8c <strcpy>
    26e1:	83 c4 10             	add    $0x10,%esp
			pasteJustFile(tempSrc, tempName);
    26e4:	83 ec 08             	sub    $0x8,%esp
    26e7:	8d 85 d8 fd ff ff    	lea    -0x228(%ebp),%eax
    26ed:	50                   	push   %eax
    26ee:	8d 85 d8 fe ff ff    	lea    -0x128(%ebp),%eax
    26f4:	50                   	push   %eax
    26f5:	e8 4c fd ff ff       	call   2446 <pasteJustFile>
    26fa:	83 c4 10             	add    $0x10,%esp
			memset(tempName, '\0', sizeof(tempName)/sizeof(char));
    26fd:	83 ec 04             	sub    $0x4,%esp
    2700:	68 00 01 00 00       	push   $0x100
    2705:	6a 00                	push   $0x0
    2707:	8d 85 d8 fd ff ff    	lea    -0x228(%ebp),%eax
    270d:	50                   	push   %eax
    270e:	e8 0f 27 00 00       	call   4e22 <memset>
    2713:	83 c4 10             	add    $0x10,%esp
			memset(tempSrc, '\0', sizeof(tempSrc)/sizeof(char));
    2716:	83 ec 04             	sub    $0x4,%esp
    2719:	68 00 01 00 00       	push   $0x100
    271e:	6a 00                	push   $0x0
    2720:	8d 85 d8 fe ff ff    	lea    -0x128(%ebp),%eax
    2726:	50                   	push   %eax
    2727:	e8 f6 26 00 00       	call   4e22 <memset>
    272c:	83 c4 10             	add    $0x10,%esp
			p1 = p1->next;
    272f:	8b 45 e8             	mov    -0x18(%ebp),%eax
    2732:	8b 40 2c             	mov    0x2c(%eax),%eax
    2735:	89 45 e8             	mov    %eax,-0x18(%ebp)
			}
			p1->next = 0;
			p = p->next;
		}
		p1 = head;
		while(p1 != 0){
    2738:	83 7d e8 00          	cmpl   $0x0,-0x18(%ebp)
    273c:	0f 85 0e ff ff ff    	jne    2650 <pasteJustFile+0x20a>
			pasteJustFile(tempSrc, tempName);
			memset(tempName, '\0', sizeof(tempName)/sizeof(char));
			memset(tempSrc, '\0', sizeof(tempSrc)/sizeof(char));
			p1 = p1->next;
		}
		chdir("..");
    2742:	83 ec 0c             	sub    $0xc,%esp
    2745:	68 0f ba 00 00       	push   $0xba0f
    274a:	e8 dd 28 00 00       	call   502c <chdir>
    274f:	83 c4 10             	add    $0x10,%esp
		updatePath("..");
    2752:	83 ec 0c             	sub    $0xc,%esp
    2755:	68 0f ba 00 00       	push   $0xba0f
    275a:	e8 a1 ef ff ff       	call   1700 <updatePath>
    275f:	83 c4 10             	add    $0x10,%esp
		p1 = head;
    2762:	8b 45 e4             	mov    -0x1c(%ebp),%eax
    2765:	89 45 e8             	mov    %eax,-0x18(%ebp)
		while (p1 != 0) {
    2768:	eb 48                	jmp    27b2 <pasteJustFile+0x36c>
			p2 = p1;
    276a:	8b 45 e8             	mov    -0x18(%ebp),%eax
    276d:	89 45 e0             	mov    %eax,-0x20(%ebp)
			printf(0, "freeing %s\n", p2->name);
    2770:	8b 45 e0             	mov    -0x20(%ebp),%eax
    2773:	8b 40 14             	mov    0x14(%eax),%eax
    2776:	83 ec 04             	sub    $0x4,%esp
    2779:	50                   	push   %eax
    277a:	68 9a ba 00 00       	push   $0xba9a
    277f:	6a 00                	push   $0x0
    2781:	e8 13 2a 00 00       	call   5199 <printf>
    2786:	83 c4 10             	add    $0x10,%esp
			p1 = p1->next;
    2789:	8b 45 e8             	mov    -0x18(%ebp),%eax
    278c:	8b 40 2c             	mov    0x2c(%eax),%eax
    278f:	89 45 e8             	mov    %eax,-0x18(%ebp)
			free(p2->name);
    2792:	8b 45 e0             	mov    -0x20(%ebp),%eax
    2795:	8b 40 14             	mov    0x14(%eax),%eax
    2798:	83 ec 0c             	sub    $0xc,%esp
    279b:	50                   	push   %eax
    279c:	e8 88 2b 00 00       	call   5329 <free>
    27a1:	83 c4 10             	add    $0x10,%esp
			free(p2);
    27a4:	83 ec 0c             	sub    $0xc,%esp
    27a7:	ff 75 e0             	pushl  -0x20(%ebp)
    27aa:	e8 7a 2b 00 00       	call   5329 <free>
    27af:	83 c4 10             	add    $0x10,%esp
			p1 = p1->next;
		}
		chdir("..");
		updatePath("..");
		p1 = head;
		while (p1 != 0) {
    27b2:	83 7d e8 00          	cmpl   $0x0,-0x18(%ebp)
    27b6:	75 b2                	jne    276a <pasteJustFile+0x324>
    27b8:	e9 0c 01 00 00       	jmp    28c9 <pasteJustFile+0x483>
			free(p2->name);
			free(p2);
		}
	}
	else{
		file_src = open(src, O_RDONLY);
    27bd:	83 ec 08             	sub    $0x8,%esp
    27c0:	6a 00                	push   $0x0
    27c2:	ff 75 08             	pushl  0x8(%ebp)
    27c5:	e8 32 28 00 00       	call   4ffc <open>
    27ca:	83 c4 10             	add    $0x10,%esp
    27cd:	89 45 f4             	mov    %eax,-0xc(%ebp)
		if((file_dest = open(filename, O_RDONLY)) >= 0){
    27d0:	83 ec 08             	sub    $0x8,%esp
    27d3:	6a 00                	push   $0x0
    27d5:	ff 75 0c             	pushl  0xc(%ebp)
    27d8:	e8 1f 28 00 00       	call   4ffc <open>
    27dd:	83 c4 10             	add    $0x10,%esp
    27e0:	89 45 f0             	mov    %eax,-0x10(%ebp)
    27e3:	83 7d f0 00          	cmpl   $0x0,-0x10(%ebp)
    27e7:	78 49                	js     2832 <pasteJustFile+0x3ec>
			printf(0, "File %s already exist\n", filename);
    27e9:	83 ec 04             	sub    $0x4,%esp
    27ec:	ff 75 0c             	pushl  0xc(%ebp)
    27ef:	68 92 bb 00 00       	push   $0xbb92
    27f4:	6a 00                	push   $0x0
    27f6:	e8 9e 29 00 00       	call   5199 <printf>
    27fb:	83 c4 10             	add    $0x10,%esp
			close(file_dest);
    27fe:	83 ec 0c             	sub    $0xc,%esp
    2801:	ff 75 f0             	pushl  -0x10(%ebp)
    2804:	e8 db 27 00 00       	call   4fe4 <close>
    2809:	83 c4 10             	add    $0x10,%esp
			close(file_src);
    280c:	83 ec 0c             	sub    $0xc,%esp
    280f:	ff 75 f4             	pushl  -0xc(%ebp)
    2812:	e8 cd 27 00 00       	call   4fe4 <close>
    2817:	83 c4 10             	add    $0x10,%esp
			free(buff);
    281a:	83 ec 0c             	sub    $0xc,%esp
    281d:	ff 75 d8             	pushl  -0x28(%ebp)
    2820:	e8 04 2b 00 00       	call   5329 <free>
    2825:	83 c4 10             	add    $0x10,%esp
			return 0;
    2828:	b8 00 00 00 00       	mov    $0x0,%eax
    282d:	e9 d8 00 00 00       	jmp    290a <pasteJustFile+0x4c4>
		}
		else{
			file_dest = open(filename, O_CREATE);
    2832:	83 ec 08             	sub    $0x8,%esp
    2835:	68 00 02 00 00       	push   $0x200
    283a:	ff 75 0c             	pushl  0xc(%ebp)
    283d:	e8 ba 27 00 00       	call   4ffc <open>
    2842:	83 c4 10             	add    $0x10,%esp
    2845:	89 45 f0             	mov    %eax,-0x10(%ebp)
			while((size = read(file_src, buff, 4096)) > 0)
    2848:	eb 14                	jmp    285e <pasteJustFile+0x418>
				write(file_dest, buff, size);
    284a:	83 ec 04             	sub    $0x4,%esp
    284d:	ff 75 dc             	pushl  -0x24(%ebp)
    2850:	ff 75 d8             	pushl  -0x28(%ebp)
    2853:	ff 75 f0             	pushl  -0x10(%ebp)
    2856:	e8 81 27 00 00       	call   4fdc <write>
    285b:	83 c4 10             	add    $0x10,%esp
			free(buff);
			return 0;
		}
		else{
			file_dest = open(filename, O_CREATE);
			while((size = read(file_src, buff, 4096)) > 0)
    285e:	83 ec 04             	sub    $0x4,%esp
    2861:	68 00 10 00 00       	push   $0x1000
    2866:	ff 75 d8             	pushl  -0x28(%ebp)
    2869:	ff 75 f4             	pushl  -0xc(%ebp)
    286c:	e8 63 27 00 00       	call   4fd4 <read>
    2871:	83 c4 10             	add    $0x10,%esp
    2874:	89 45 dc             	mov    %eax,-0x24(%ebp)
    2877:	83 7d dc 00          	cmpl   $0x0,-0x24(%ebp)
    287b:	7f cd                	jg     284a <pasteJustFile+0x404>
				write(file_dest, buff, size);
			if(size < 0)
    287d:	83 7d dc 00          	cmpl   $0x0,-0x24(%ebp)
    2881:	79 46                	jns    28c9 <pasteJustFile+0x483>
			{
				//printf(2, "copy file error!!!\r\n");
				printf(0, "File %s error\n", filename);
    2883:	83 ec 04             	sub    $0x4,%esp
    2886:	ff 75 0c             	pushl  0xc(%ebp)
    2889:	68 a9 bb 00 00       	push   $0xbba9
    288e:	6a 00                	push   $0x0
    2890:	e8 04 29 00 00       	call   5199 <printf>
    2895:	83 c4 10             	add    $0x10,%esp
				close(file_dest);
    2898:	83 ec 0c             	sub    $0xc,%esp
    289b:	ff 75 f0             	pushl  -0x10(%ebp)
    289e:	e8 41 27 00 00       	call   4fe4 <close>
    28a3:	83 c4 10             	add    $0x10,%esp
				close(file_src);
    28a6:	83 ec 0c             	sub    $0xc,%esp
    28a9:	ff 75 f4             	pushl  -0xc(%ebp)
    28ac:	e8 33 27 00 00       	call   4fe4 <close>
    28b1:	83 c4 10             	add    $0x10,%esp
				free(buff);
    28b4:	83 ec 0c             	sub    $0xc,%esp
    28b7:	ff 75 d8             	pushl  -0x28(%ebp)
    28ba:	e8 6a 2a 00 00       	call   5329 <free>
    28bf:	83 c4 10             	add    $0x10,%esp
				return 0;
    28c2:	b8 00 00 00 00       	mov    $0x0,%eax
    28c7:	eb 41                	jmp    290a <pasteJustFile+0x4c4>
			}
		}
	}
	close(file_dest);
    28c9:	83 ec 0c             	sub    $0xc,%esp
    28cc:	ff 75 f0             	pushl  -0x10(%ebp)
    28cf:	e8 10 27 00 00       	call   4fe4 <close>
    28d4:	83 c4 10             	add    $0x10,%esp
	close(file_src);
    28d7:	83 ec 0c             	sub    $0xc,%esp
    28da:	ff 75 f4             	pushl  -0xc(%ebp)
    28dd:	e8 02 27 00 00       	call   4fe4 <close>
    28e2:	83 c4 10             	add    $0x10,%esp
	free(buff);
    28e5:	83 ec 0c             	sub    $0xc,%esp
    28e8:	ff 75 d8             	pushl  -0x28(%ebp)
    28eb:	e8 39 2a 00 00       	call   5329 <free>
    28f0:	83 c4 10             	add    $0x10,%esp
	printf(0,"copy end\n");
    28f3:	83 ec 08             	sub    $0x8,%esp
    28f6:	68 b8 bb 00 00       	push   $0xbbb8
    28fb:	6a 00                	push   $0x0
    28fd:	e8 97 28 00 00       	call   5199 <printf>
    2902:	83 c4 10             	add    $0x10,%esp
	return 1;
    2905:	b8 01 00 00 00       	mov    $0x1,%eax
}
    290a:	c9                   	leave  
    290b:	c3                   	ret    

0000290c <pasteFile>:

void pasteFile(){
    290c:	55                   	push   %ebp
    290d:	89 e5                	mov    %esp,%ebp
    290f:	83 ec 18             	sub    $0x18,%esp
	int i,j;
	char *filename;
	for(i = 0; i < lenOfWaited; i++){
    2912:	c7 45 f4 00 00 00 00 	movl   $0x0,-0xc(%ebp)
    2919:	e9 ab 00 00 00       	jmp    29c9 <pasteFile+0xbd>
		printf(0, "this is NO.%d file names %s\n", i, filesWaited[i]);
    291e:	8b 45 f4             	mov    -0xc(%ebp),%eax
    2921:	c1 e0 08             	shl    $0x8,%eax
    2924:	05 00 36 01 00       	add    $0x13600,%eax
    2929:	50                   	push   %eax
    292a:	ff 75 f4             	pushl  -0xc(%ebp)
    292d:	68 c2 bb 00 00       	push   $0xbbc2
    2932:	6a 00                	push   $0x0
    2934:	e8 60 28 00 00       	call   5199 <printf>
    2939:	83 c4 10             	add    $0x10,%esp
		for(j = strlen(filesWaited[i])-1; j >= 0; j--){
    293c:	8b 45 f4             	mov    -0xc(%ebp),%eax
    293f:	c1 e0 08             	shl    $0x8,%eax
    2942:	05 00 36 01 00       	add    $0x13600,%eax
    2947:	83 ec 0c             	sub    $0xc,%esp
    294a:	50                   	push   %eax
    294b:	e8 ab 24 00 00       	call   4dfb <strlen>
    2950:	83 c4 10             	add    $0x10,%esp
    2953:	83 e8 01             	sub    $0x1,%eax
    2956:	89 45 f0             	mov    %eax,-0x10(%ebp)
    2959:	eb 35                	jmp    2990 <pasteFile+0x84>
			if (*(filesWaited[i]+j) == '/'){
    295b:	8b 45 f4             	mov    -0xc(%ebp),%eax
    295e:	c1 e0 08             	shl    $0x8,%eax
    2961:	8d 90 00 36 01 00    	lea    0x13600(%eax),%edx
    2967:	8b 45 f0             	mov    -0x10(%ebp),%eax
    296a:	01 d0                	add    %edx,%eax
    296c:	0f b6 00             	movzbl (%eax),%eax
    296f:	3c 2f                	cmp    $0x2f,%al
    2971:	75 19                	jne    298c <pasteFile+0x80>
				filename = filesWaited[i] + j + 1;
    2973:	8b 45 f4             	mov    -0xc(%ebp),%eax
    2976:	c1 e0 08             	shl    $0x8,%eax
    2979:	8d 90 00 36 01 00    	lea    0x13600(%eax),%edx
    297f:	8b 45 f0             	mov    -0x10(%ebp),%eax
    2982:	83 c0 01             	add    $0x1,%eax
    2985:	01 d0                	add    %edx,%eax
    2987:	89 45 ec             	mov    %eax,-0x14(%ebp)
				break;
    298a:	eb 0a                	jmp    2996 <pasteFile+0x8a>
void pasteFile(){
	int i,j;
	char *filename;
	for(i = 0; i < lenOfWaited; i++){
		printf(0, "this is NO.%d file names %s\n", i, filesWaited[i]);
		for(j = strlen(filesWaited[i])-1; j >= 0; j--){
    298c:	83 6d f0 01          	subl   $0x1,-0x10(%ebp)
    2990:	83 7d f0 00          	cmpl   $0x0,-0x10(%ebp)
    2994:	79 c5                	jns    295b <pasteFile+0x4f>
			if (*(filesWaited[i]+j) == '/'){
				filename = filesWaited[i] + j + 1;
				break;
			}
		}
		printf(0, "NO.%d file %s name get\n", i, filename);
    2996:	ff 75 ec             	pushl  -0x14(%ebp)
    2999:	ff 75 f4             	pushl  -0xc(%ebp)
    299c:	68 df bb 00 00       	push   $0xbbdf
    29a1:	6a 00                	push   $0x0
    29a3:	e8 f1 27 00 00       	call   5199 <printf>
    29a8:	83 c4 10             	add    $0x10,%esp
		pasteJustFile(filesWaited[i], filename);
    29ab:	8b 45 f4             	mov    -0xc(%ebp),%eax
    29ae:	c1 e0 08             	shl    $0x8,%eax
    29b1:	05 00 36 01 00       	add    $0x13600,%eax
    29b6:	83 ec 08             	sub    $0x8,%esp
    29b9:	ff 75 ec             	pushl  -0x14(%ebp)
    29bc:	50                   	push   %eax
    29bd:	e8 84 fa ff ff       	call   2446 <pasteJustFile>
    29c2:	83 c4 10             	add    $0x10,%esp
}

void pasteFile(){
	int i,j;
	char *filename;
	for(i = 0; i < lenOfWaited; i++){
    29c5:	83 45 f4 01          	addl   $0x1,-0xc(%ebp)
    29c9:	a1 58 40 01 00       	mov    0x14058,%eax
    29ce:	39 45 f4             	cmp    %eax,-0xc(%ebp)
    29d1:	0f 8c 47 ff ff ff    	jl     291e <pasteFile+0x12>
			}
		}
		printf(0, "NO.%d file %s name get\n", i, filename);
		pasteJustFile(filesWaited[i], filename);
	}
}
    29d7:	c9                   	leave  
    29d8:	c3                   	ret    

000029d9 <h_pasteFile>:

void h_pasteFile(Point p){
    29d9:	55                   	push   %ebp
    29da:	89 e5                	mov    %esp,%ebp
    29dc:	83 ec 18             	sub    $0x18,%esp
	pasteFile();
    29df:	e8 28 ff ff ff       	call   290c <pasteFile>
	if(copyOrCut == 1)
    29e4:	a1 44 07 01 00       	mov    0x10744,%eax
    29e9:	83 f8 01             	cmp    $0x1,%eax
    29ec:	75 05                	jne    29f3 <h_pasteFile+0x1a>
		moveFile();
    29ee:	e8 f2 f9 ff ff       	call   23e5 <moveFile>
    updateFileList(context);
    29f3:	83 ec 04             	sub    $0x4,%esp
    29f6:	ff 35 08 3f 01 00    	pushl  0x13f08
    29fc:	ff 35 04 3f 01 00    	pushl  0x13f04
    2a02:	ff 35 00 3f 01 00    	pushl  0x13f00
    2a08:	e8 e2 e1 ff ff       	call   bef <updateFileList>
    2a0d:	83 c4 10             	add    $0x10,%esp
	drawFinderContent(context);
    2a10:	83 ec 04             	sub    $0x4,%esp
    2a13:	ff 35 08 3f 01 00    	pushl  0x13f08
    2a19:	ff 35 04 3f 01 00    	pushl  0x13f04
    2a1f:	ff 35 00 3f 01 00    	pushl  0x13f00
    2a25:	e8 18 e3 ff ff       	call   d42 <drawFinderContent>
    2a2a:	83 c4 10             	add    $0x10,%esp
	drawFinderWnd(context);
    2a2d:	83 ec 04             	sub    $0x4,%esp
    2a30:	ff 35 08 3f 01 00    	pushl  0x13f08
    2a36:	ff 35 04 3f 01 00    	pushl  0x13f04
    2a3c:	ff 35 00 3f 01 00    	pushl  0x13f00
    2a42:	e8 88 e0 ff ff       	call   acf <drawFinderWnd>
    2a47:	83 c4 10             	add    $0x10,%esp
	deleteClickable(&cm.left_click, initRect(0, 0, 800, 600));
    2a4a:	8d 45 e8             	lea    -0x18(%ebp),%eax
    2a4d:	83 ec 0c             	sub    $0xc,%esp
    2a50:	68 58 02 00 00       	push   $0x258
    2a55:	68 20 03 00 00       	push   $0x320
    2a5a:	6a 00                	push   $0x0
    2a5c:	6a 00                	push   $0x0
    2a5e:	50                   	push   %eax
    2a5f:	e8 6f 1d 00 00       	call   47d3 <initRect>
    2a64:	83 c4 1c             	add    $0x1c,%esp
    2a67:	83 ec 0c             	sub    $0xc,%esp
    2a6a:	ff 75 f4             	pushl  -0xc(%ebp)
    2a6d:	ff 75 f0             	pushl  -0x10(%ebp)
    2a70:	ff 75 ec             	pushl  -0x14(%ebp)
    2a73:	ff 75 e8             	pushl  -0x18(%ebp)
    2a76:	68 40 40 01 00       	push   $0x14040
    2a7b:	e8 18 1f 00 00       	call   4998 <deleteClickable>
    2a80:	83 c4 20             	add    $0x20,%esp
	addWndEvent(&cm);
    2a83:	83 ec 0c             	sub    $0xc,%esp
    2a86:	68 40 40 01 00       	push   $0x14040
    2a8b:	e8 1a e7 ff ff       	call   11aa <addWndEvent>
    2a90:	83 c4 10             	add    $0x10,%esp
	addListEvent(&cm);
    2a93:	83 ec 0c             	sub    $0xc,%esp
    2a96:	68 40 40 01 00       	push   $0x14040
    2a9b:	e8 af e6 ff ff       	call   114f <addListEvent>
    2aa0:	83 c4 10             	add    $0x10,%esp
}
    2aa3:	c9                   	leave  
    2aa4:	c3                   	ret    

00002aa5 <h_chooseFile>:

void h_chooseFile(Point p) {
    2aa5:	55                   	push   %ebp
    2aa6:	89 e5                	mov    %esp,%ebp
    2aa8:	83 ec 18             	sub    $0x18,%esp
	struct fileItem *temp = getFileItem(p);
    2aab:	83 ec 08             	sub    $0x8,%esp
    2aae:	ff 75 0c             	pushl  0xc(%ebp)
    2ab1:	ff 75 08             	pushl  0x8(%ebp)
    2ab4:	e8 dd e7 ff ff       	call   1296 <getFileItem>
    2ab9:	83 c4 10             	add    $0x10,%esp
    2abc:	89 45 f4             	mov    %eax,-0xc(%ebp)
	if (temp->chosen != 0)
    2abf:	8b 45 f4             	mov    -0xc(%ebp),%eax
    2ac2:	8b 40 28             	mov    0x28(%eax),%eax
    2ac5:	85 c0                	test   %eax,%eax
    2ac7:	74 1e                	je     2ae7 <h_chooseFile+0x42>
	{
		printf(0, "unchooseFile!\n");
    2ac9:	83 ec 08             	sub    $0x8,%esp
    2acc:	68 f7 bb 00 00       	push   $0xbbf7
    2ad1:	6a 00                	push   $0x0
    2ad3:	e8 c1 26 00 00       	call   5199 <printf>
    2ad8:	83 c4 10             	add    $0x10,%esp
		temp->chosen = 0;
    2adb:	8b 45 f4             	mov    -0xc(%ebp),%eax
    2ade:	c7 40 28 00 00 00 00 	movl   $0x0,0x28(%eax)
    2ae5:	eb 1c                	jmp    2b03 <h_chooseFile+0x5e>
	}
	else
	{
		printf(0, "chooseFile!\n");
    2ae7:	83 ec 08             	sub    $0x8,%esp
    2aea:	68 06 bc 00 00       	push   $0xbc06
    2aef:	6a 00                	push   $0x0
    2af1:	e8 a3 26 00 00       	call   5199 <printf>
    2af6:	83 c4 10             	add    $0x10,%esp
		temp->chosen = 1;
    2af9:	8b 45 f4             	mov    -0xc(%ebp),%eax
    2afc:	c7 40 28 01 00 00 00 	movl   $0x1,0x28(%eax)
	}
	drawFinderContent(context);
    2b03:	83 ec 04             	sub    $0x4,%esp
    2b06:	ff 35 08 3f 01 00    	pushl  0x13f08
    2b0c:	ff 35 04 3f 01 00    	pushl  0x13f04
    2b12:	ff 35 00 3f 01 00    	pushl  0x13f00
    2b18:	e8 25 e2 ff ff       	call   d42 <drawFinderContent>
    2b1d:	83 c4 10             	add    $0x10,%esp
	drawFinderWnd(context);
    2b20:	83 ec 04             	sub    $0x4,%esp
    2b23:	ff 35 08 3f 01 00    	pushl  0x13f08
    2b29:	ff 35 04 3f 01 00    	pushl  0x13f04
    2b2f:	ff 35 00 3f 01 00    	pushl  0x13f00
    2b35:	e8 95 df ff ff       	call   acf <drawFinderWnd>
    2b3a:	83 c4 10             	add    $0x10,%esp
}
    2b3d:	c9                   	leave  
    2b3e:	c3                   	ret    

00002b3f <h_closeWnd>:

void h_closeWnd(Point p) {
    2b3f:	55                   	push   %ebp
    2b40:	89 e5                	mov    %esp,%ebp
	isRun = 0;
    2b42:	c7 05 00 fd 00 00 00 	movl   $0x0,0xfd00
    2b49:	00 00 00 
}
    2b4c:	5d                   	pop    %ebp
    2b4d:	c3                   	ret    

00002b4e <h_chvm1>:

void h_chvm1(Point p) {
    2b4e:	55                   	push   %ebp
    2b4f:	89 e5                	mov    %esp,%ebp
    2b51:	83 ec 18             	sub    $0x18,%esp
	style = ICON_STYLE;
    2b54:	c7 05 04 fd 00 00 01 	movl   $0x1,0xfd04
    2b5b:	00 00 00 
	updateFileList(context);
    2b5e:	83 ec 04             	sub    $0x4,%esp
    2b61:	ff 35 08 3f 01 00    	pushl  0x13f08
    2b67:	ff 35 04 3f 01 00    	pushl  0x13f04
    2b6d:	ff 35 00 3f 01 00    	pushl  0x13f00
    2b73:	e8 77 e0 ff ff       	call   bef <updateFileList>
    2b78:	83 c4 10             	add    $0x10,%esp
		drawFinderContent(context);
    2b7b:	83 ec 04             	sub    $0x4,%esp
    2b7e:	ff 35 08 3f 01 00    	pushl  0x13f08
    2b84:	ff 35 04 3f 01 00    	pushl  0x13f04
    2b8a:	ff 35 00 3f 01 00    	pushl  0x13f00
    2b90:	e8 ad e1 ff ff       	call   d42 <drawFinderContent>
    2b95:	83 c4 10             	add    $0x10,%esp
	drawFinderWnd(context);
    2b98:	83 ec 04             	sub    $0x4,%esp
    2b9b:	ff 35 08 3f 01 00    	pushl  0x13f08
    2ba1:	ff 35 04 3f 01 00    	pushl  0x13f04
    2ba7:	ff 35 00 3f 01 00    	pushl  0x13f00
    2bad:	e8 1d df ff ff       	call   acf <drawFinderWnd>
    2bb2:	83 c4 10             	add    $0x10,%esp
			deleteClickable(&cm.left_click, initRect(0, 0, 800, 600));
    2bb5:	8d 45 e8             	lea    -0x18(%ebp),%eax
    2bb8:	83 ec 0c             	sub    $0xc,%esp
    2bbb:	68 58 02 00 00       	push   $0x258
    2bc0:	68 20 03 00 00       	push   $0x320
    2bc5:	6a 00                	push   $0x0
    2bc7:	6a 00                	push   $0x0
    2bc9:	50                   	push   %eax
    2bca:	e8 04 1c 00 00       	call   47d3 <initRect>
    2bcf:	83 c4 1c             	add    $0x1c,%esp
    2bd2:	83 ec 0c             	sub    $0xc,%esp
    2bd5:	ff 75 f4             	pushl  -0xc(%ebp)
    2bd8:	ff 75 f0             	pushl  -0x10(%ebp)
    2bdb:	ff 75 ec             	pushl  -0x14(%ebp)
    2bde:	ff 75 e8             	pushl  -0x18(%ebp)
    2be1:	68 40 40 01 00       	push   $0x14040
    2be6:	e8 ad 1d 00 00       	call   4998 <deleteClickable>
    2beb:	83 c4 20             	add    $0x20,%esp
			addWndEvent(&cm);
    2bee:	83 ec 0c             	sub    $0xc,%esp
    2bf1:	68 40 40 01 00       	push   $0x14040
    2bf6:	e8 af e5 ff ff       	call   11aa <addWndEvent>
    2bfb:	83 c4 10             	add    $0x10,%esp
			addListEvent(&cm);
    2bfe:	83 ec 0c             	sub    $0xc,%esp
    2c01:	68 40 40 01 00       	push   $0x14040
    2c06:	e8 44 e5 ff ff       	call   114f <addListEvent>
    2c0b:	83 c4 10             	add    $0x10,%esp
}
    2c0e:	c9                   	leave  
    2c0f:	c3                   	ret    

00002c10 <h_chvm2>:

void h_chvm2(Point p) {
    2c10:	55                   	push   %ebp
    2c11:	89 e5                	mov    %esp,%ebp
    2c13:	83 ec 18             	sub    $0x18,%esp
	style = LIST_STYLE;
    2c16:	c7 05 04 fd 00 00 02 	movl   $0x2,0xfd04
    2c1d:	00 00 00 
	updateFileList(context);
    2c20:	83 ec 04             	sub    $0x4,%esp
    2c23:	ff 35 08 3f 01 00    	pushl  0x13f08
    2c29:	ff 35 04 3f 01 00    	pushl  0x13f04
    2c2f:	ff 35 00 3f 01 00    	pushl  0x13f00
    2c35:	e8 b5 df ff ff       	call   bef <updateFileList>
    2c3a:	83 c4 10             	add    $0x10,%esp
		drawFinderContent(context);
    2c3d:	83 ec 04             	sub    $0x4,%esp
    2c40:	ff 35 08 3f 01 00    	pushl  0x13f08
    2c46:	ff 35 04 3f 01 00    	pushl  0x13f04
    2c4c:	ff 35 00 3f 01 00    	pushl  0x13f00
    2c52:	e8 eb e0 ff ff       	call   d42 <drawFinderContent>
    2c57:	83 c4 10             	add    $0x10,%esp
	drawFinderWnd(context);
    2c5a:	83 ec 04             	sub    $0x4,%esp
    2c5d:	ff 35 08 3f 01 00    	pushl  0x13f08
    2c63:	ff 35 04 3f 01 00    	pushl  0x13f04
    2c69:	ff 35 00 3f 01 00    	pushl  0x13f00
    2c6f:	e8 5b de ff ff       	call   acf <drawFinderWnd>
    2c74:	83 c4 10             	add    $0x10,%esp
			deleteClickable(&cm.left_click, initRect(0, 0, 800, 600));
    2c77:	8d 45 e8             	lea    -0x18(%ebp),%eax
    2c7a:	83 ec 0c             	sub    $0xc,%esp
    2c7d:	68 58 02 00 00       	push   $0x258
    2c82:	68 20 03 00 00       	push   $0x320
    2c87:	6a 00                	push   $0x0
    2c89:	6a 00                	push   $0x0
    2c8b:	50                   	push   %eax
    2c8c:	e8 42 1b 00 00       	call   47d3 <initRect>
    2c91:	83 c4 1c             	add    $0x1c,%esp
    2c94:	83 ec 0c             	sub    $0xc,%esp
    2c97:	ff 75 f4             	pushl  -0xc(%ebp)
    2c9a:	ff 75 f0             	pushl  -0x10(%ebp)
    2c9d:	ff 75 ec             	pushl  -0x14(%ebp)
    2ca0:	ff 75 e8             	pushl  -0x18(%ebp)
    2ca3:	68 40 40 01 00       	push   $0x14040
    2ca8:	e8 eb 1c 00 00       	call   4998 <deleteClickable>
    2cad:	83 c4 20             	add    $0x20,%esp
			addWndEvent(&cm);
    2cb0:	83 ec 0c             	sub    $0xc,%esp
    2cb3:	68 40 40 01 00       	push   $0x14040
    2cb8:	e8 ed e4 ff ff       	call   11aa <addWndEvent>
    2cbd:	83 c4 10             	add    $0x10,%esp
			addListEvent(&cm);
    2cc0:	83 ec 0c             	sub    $0xc,%esp
    2cc3:	68 40 40 01 00       	push   $0x14040
    2cc8:	e8 82 e4 ff ff       	call   114f <addListEvent>
    2ccd:	83 c4 10             	add    $0x10,%esp
}
    2cd0:	c9                   	leave  
    2cd1:	c3                   	ret    

00002cd2 <h_goUp>:

void h_goUp(Point p) {
    2cd2:	55                   	push   %ebp
    2cd3:	89 e5                	mov    %esp,%ebp
    2cd5:	83 ec 18             	sub    $0x18,%esp
	enterDir("..");
    2cd8:	83 ec 0c             	sub    $0xc,%esp
    2cdb:	68 0f ba 00 00       	push   $0xba0f
    2ce0:	e8 23 eb ff ff       	call   1808 <enterDir>
    2ce5:	83 c4 10             	add    $0x10,%esp
	updateFileList(context);
    2ce8:	83 ec 04             	sub    $0x4,%esp
    2ceb:	ff 35 08 3f 01 00    	pushl  0x13f08
    2cf1:	ff 35 04 3f 01 00    	pushl  0x13f04
    2cf7:	ff 35 00 3f 01 00    	pushl  0x13f00
    2cfd:	e8 ed de ff ff       	call   bef <updateFileList>
    2d02:	83 c4 10             	add    $0x10,%esp
	drawFinderContent(context);
    2d05:	83 ec 04             	sub    $0x4,%esp
    2d08:	ff 35 08 3f 01 00    	pushl  0x13f08
    2d0e:	ff 35 04 3f 01 00    	pushl  0x13f04
    2d14:	ff 35 00 3f 01 00    	pushl  0x13f00
    2d1a:	e8 23 e0 ff ff       	call   d42 <drawFinderContent>
    2d1f:	83 c4 10             	add    $0x10,%esp
	drawFinderWnd(context);
    2d22:	83 ec 04             	sub    $0x4,%esp
    2d25:	ff 35 08 3f 01 00    	pushl  0x13f08
    2d2b:	ff 35 04 3f 01 00    	pushl  0x13f04
    2d31:	ff 35 00 3f 01 00    	pushl  0x13f00
    2d37:	e8 93 dd ff ff       	call   acf <drawFinderWnd>
    2d3c:	83 c4 10             	add    $0x10,%esp
	deleteClickable(&cm.left_click, initRect(0, 0, 800, 600));
    2d3f:	8d 45 e8             	lea    -0x18(%ebp),%eax
    2d42:	83 ec 0c             	sub    $0xc,%esp
    2d45:	68 58 02 00 00       	push   $0x258
    2d4a:	68 20 03 00 00       	push   $0x320
    2d4f:	6a 00                	push   $0x0
    2d51:	6a 00                	push   $0x0
    2d53:	50                   	push   %eax
    2d54:	e8 7a 1a 00 00       	call   47d3 <initRect>
    2d59:	83 c4 1c             	add    $0x1c,%esp
    2d5c:	83 ec 0c             	sub    $0xc,%esp
    2d5f:	ff 75 f4             	pushl  -0xc(%ebp)
    2d62:	ff 75 f0             	pushl  -0x10(%ebp)
    2d65:	ff 75 ec             	pushl  -0x14(%ebp)
    2d68:	ff 75 e8             	pushl  -0x18(%ebp)
    2d6b:	68 40 40 01 00       	push   $0x14040
    2d70:	e8 23 1c 00 00       	call   4998 <deleteClickable>
    2d75:	83 c4 20             	add    $0x20,%esp
	addWndEvent(&cm);
    2d78:	83 ec 0c             	sub    $0xc,%esp
    2d7b:	68 40 40 01 00       	push   $0x14040
    2d80:	e8 25 e4 ff ff       	call   11aa <addWndEvent>
    2d85:	83 c4 10             	add    $0x10,%esp
	addListEvent(&cm);
    2d88:	83 ec 0c             	sub    $0xc,%esp
    2d8b:	68 40 40 01 00       	push   $0x14040
    2d90:	e8 ba e3 ff ff       	call   114f <addListEvent>
    2d95:	83 c4 10             	add    $0x10,%esp
}
    2d98:	c9                   	leave  
    2d99:	c3                   	ret    

00002d9a <h_empty>:

void h_empty(Point p) {
    2d9a:	55                   	push   %ebp
    2d9b:	89 e5                	mov    %esp,%ebp

}
    2d9d:	5d                   	pop    %ebp
    2d9e:	c3                   	ret    

00002d9f <rename>:

void rename() {
    2d9f:	55                   	push   %ebp
    2da0:	89 e5                	mov    %esp,%ebp
    2da2:	83 ec 18             	sub    $0x18,%esp
	struct fileItem *temp = fileItemList;
    2da5:	a1 50 07 01 00       	mov    0x10750,%eax
    2daa:	89 45 f4             	mov    %eax,-0xc(%ebp)
	while (temp != 0){
    2dad:	eb 49                	jmp    2df8 <rename+0x59>
		if (temp->chosen == 1){
    2daf:	8b 45 f4             	mov    -0xc(%ebp),%eax
    2db2:	8b 40 28             	mov    0x28(%eax),%eax
    2db5:	83 f8 01             	cmp    $0x1,%eax
    2db8:	75 35                	jne    2def <rename+0x50>
			currentlyRenaming = temp;
    2dba:	8b 45 f4             	mov    -0xc(%ebp),%eax
    2dbd:	a3 4c 07 01 00       	mov    %eax,0x1074c
			temp->chosen = 2;
    2dc2:	8b 45 f4             	mov    -0xc(%ebp),%eax
    2dc5:	c7 40 28 02 00 00 00 	movl   $0x2,0x28(%eax)
			strcpy(renameFrom, temp->name);
    2dcc:	8b 45 f4             	mov    -0xc(%ebp),%eax
    2dcf:	8b 40 14             	mov    0x14(%eax),%eax
    2dd2:	83 ec 08             	sub    $0x8,%esp
    2dd5:	50                   	push   %eax
    2dd6:	68 00 3e 01 00       	push   $0x13e00
    2ddb:	e8 ac 1f 00 00       	call   4d8c <strcpy>
    2de0:	83 c4 10             	add    $0x10,%esp
			renaming = 1;
    2de3:	c7 05 54 40 01 00 01 	movl   $0x1,0x14054
    2dea:	00 00 00 
			break;
    2ded:	eb 0f                	jmp    2dfe <rename+0x5f>
		}
		else
			temp = temp->next;
    2def:	8b 45 f4             	mov    -0xc(%ebp),%eax
    2df2:	8b 40 2c             	mov    0x2c(%eax),%eax
    2df5:	89 45 f4             	mov    %eax,-0xc(%ebp)

}

void rename() {
	struct fileItem *temp = fileItemList;
	while (temp != 0){
    2df8:	83 7d f4 00          	cmpl   $0x0,-0xc(%ebp)
    2dfc:	75 b1                	jne    2daf <rename+0x10>
			break;
		}
		else
			temp = temp->next;
	}
}
    2dfe:	c9                   	leave  
    2dff:	c3                   	ret    

00002e00 <h_rename>:

void h_rename(Point p) {
    2e00:	55                   	push   %ebp
    2e01:	89 e5                	mov    %esp,%ebp
    2e03:	83 ec 08             	sub    $0x8,%esp
	rename();
    2e06:	e8 94 ff ff ff       	call   2d9f <rename>
	drawFinderContent(context);
    2e0b:	83 ec 04             	sub    $0x4,%esp
    2e0e:	ff 35 08 3f 01 00    	pushl  0x13f08
    2e14:	ff 35 04 3f 01 00    	pushl  0x13f04
    2e1a:	ff 35 00 3f 01 00    	pushl  0x13f00
    2e20:	e8 1d df ff ff       	call   d42 <drawFinderContent>
    2e25:	83 c4 10             	add    $0x10,%esp
	drawFinderWnd(context);
    2e28:	83 ec 04             	sub    $0x4,%esp
    2e2b:	ff 35 08 3f 01 00    	pushl  0x13f08
    2e31:	ff 35 04 3f 01 00    	pushl  0x13f04
    2e37:	ff 35 00 3f 01 00    	pushl  0x13f00
    2e3d:	e8 8d dc ff ff       	call   acf <drawFinderWnd>
    2e42:	83 c4 10             	add    $0x10,%esp
}
    2e45:	c9                   	leave  
    2e46:	c3                   	ret    

00002e47 <main>:

int main(int argc, char *argv[]) {
    2e47:	8d 4c 24 04          	lea    0x4(%esp),%ecx
    2e4b:	83 e4 f0             	and    $0xfffffff0,%esp
    2e4e:	ff 71 fc             	pushl  -0x4(%ecx)
    2e51:	55                   	push   %ebp
    2e52:	89 e5                	mov    %esp,%ebp
    2e54:	56                   	push   %esi
    2e55:	53                   	push   %ebx
    2e56:	51                   	push   %ecx
    2e57:	81 ec 8c 00 00 00    	sub    $0x8c,%esp
	struct Msg msg;
	char key;

	Point p;

	init_keyContent();
    2e5d:	e8 08 d2 ff ff       	call   6a <init_keyContent>
	winid = init_context(&context, WINDOW_WIDTH, WINDOW_HEIGHT);
    2e62:	83 ec 04             	sub    $0x4,%esp
    2e65:	68 c2 01 00 00       	push   $0x1c2
    2e6a:	68 58 02 00 00       	push   $0x258
    2e6f:	68 00 3f 01 00       	push   $0x13f00
    2e74:	e8 2b 07 00 00       	call   35a4 <init_context>
    2e79:	83 c4 10             	add    $0x10,%esp
    2e7c:	89 45 e4             	mov    %eax,-0x1c(%ebp)
	cm = initClickManager(context);
    2e7f:	8d 85 78 ff ff ff    	lea    -0x88(%ebp),%eax
    2e85:	ff 35 08 3f 01 00    	pushl  0x13f08
    2e8b:	ff 35 04 3f 01 00    	pushl  0x13f04
    2e91:	ff 35 00 3f 01 00    	pushl  0x13f00
    2e97:	50                   	push   %eax
    2e98:	e8 ca 19 00 00       	call   4867 <initClickManager>
    2e9d:	83 c4 0c             	add    $0xc,%esp
    2ea0:	8b 85 78 ff ff ff    	mov    -0x88(%ebp),%eax
    2ea6:	a3 40 40 01 00       	mov    %eax,0x14040
    2eab:	8b 85 7c ff ff ff    	mov    -0x84(%ebp),%eax
    2eb1:	a3 44 40 01 00       	mov    %eax,0x14044
    2eb6:	8b 45 80             	mov    -0x80(%ebp),%eax
    2eb9:	a3 48 40 01 00       	mov    %eax,0x14048
    2ebe:	8b 45 84             	mov    -0x7c(%ebp),%eax
    2ec1:	a3 4c 40 01 00       	mov    %eax,0x1404c
    2ec6:	8b 45 88             	mov    -0x78(%ebp),%eax
    2ec9:	a3 50 40 01 00       	mov    %eax,0x14050
	load_iconlist(wndRes, sizeof(wndRes) / sizeof(ICON));
    2ece:	83 ec 08             	sub    $0x8,%esp
    2ed1:	6a 0f                	push   $0xf
    2ed3:	68 40 fe 00 00       	push   $0xfe40
    2ed8:	e8 f1 10 00 00       	call   3fce <load_iconlist>
    2edd:	83 c4 10             	add    $0x10,%esp
	load_iconlist(contentRes, sizeof(contentRes) / sizeof(ICON));
    2ee0:	83 ec 08             	sub    $0x8,%esp
    2ee3:	6a 04                	push   $0x4
    2ee5:	68 40 fd 00 00       	push   $0xfd40
    2eea:	e8 df 10 00 00       	call   3fce <load_iconlist>
    2eef:	83 c4 10             	add    $0x10,%esp
	//testHandlers();
	strcpy(currentPath, "/");
    2ef2:	83 ec 08             	sub    $0x8,%esp
    2ef5:	68 13 bc 00 00       	push   $0xbc13
    2efa:	68 40 3f 01 00       	push   $0x13f40
    2eff:	e8 88 1e 00 00       	call   4d8c <strcpy>
    2f04:	83 c4 10             	add    $0x10,%esp
	mkdir("userfolder");
    2f07:	83 ec 0c             	sub    $0xc,%esp
    2f0a:	68 15 bc 00 00       	push   $0xbc15
    2f0f:	e8 10 21 00 00       	call   5024 <mkdir>
    2f14:	83 c4 10             	add    $0x10,%esp
	enterDir("userfolder");
    2f17:	83 ec 0c             	sub    $0xc,%esp
    2f1a:	68 15 bc 00 00       	push   $0xbc15
    2f1f:	e8 e4 e8 ff ff       	call   1808 <enterDir>
    2f24:	83 c4 10             	add    $0x10,%esp
	updateFileList(context);
    2f27:	83 ec 04             	sub    $0x4,%esp
    2f2a:	ff 35 08 3f 01 00    	pushl  0x13f08
    2f30:	ff 35 04 3f 01 00    	pushl  0x13f04
    2f36:	ff 35 00 3f 01 00    	pushl  0x13f00
    2f3c:	e8 ae dc ff ff       	call   bef <updateFileList>
    2f41:	83 c4 10             	add    $0x10,%esp
	deleteClickable(&cm.left_click, initRect(0, 0, 800, 600));
    2f44:	8d 45 c0             	lea    -0x40(%ebp),%eax
    2f47:	83 ec 0c             	sub    $0xc,%esp
    2f4a:	68 58 02 00 00       	push   $0x258
    2f4f:	68 20 03 00 00       	push   $0x320
    2f54:	6a 00                	push   $0x0
    2f56:	6a 00                	push   $0x0
    2f58:	50                   	push   %eax
    2f59:	e8 75 18 00 00       	call   47d3 <initRect>
    2f5e:	83 c4 1c             	add    $0x1c,%esp
    2f61:	83 ec 0c             	sub    $0xc,%esp
    2f64:	ff 75 cc             	pushl  -0x34(%ebp)
    2f67:	ff 75 c8             	pushl  -0x38(%ebp)
    2f6a:	ff 75 c4             	pushl  -0x3c(%ebp)
    2f6d:	ff 75 c0             	pushl  -0x40(%ebp)
    2f70:	68 40 40 01 00       	push   $0x14040
    2f75:	e8 1e 1a 00 00       	call   4998 <deleteClickable>
    2f7a:	83 c4 20             	add    $0x20,%esp
	addWndEvent(&cm);
    2f7d:	83 ec 0c             	sub    $0xc,%esp
    2f80:	68 40 40 01 00       	push   $0x14040
    2f85:	e8 20 e2 ff ff       	call   11aa <addWndEvent>
    2f8a:	83 c4 10             	add    $0x10,%esp
	addListEvent(&cm);
    2f8d:	83 ec 0c             	sub    $0xc,%esp
    2f90:	68 40 40 01 00       	push   $0x14040
    2f95:	e8 b5 e1 ff ff       	call   114f <addListEvent>
    2f9a:	83 c4 10             	add    $0x10,%esp
	lenOfWaited = 0;
    2f9d:	c7 05 58 40 01 00 00 	movl   $0x0,0x14058
    2fa4:	00 00 00 
	while (isRun) {
    2fa7:	e9 ba 04 00 00       	jmp    3466 <main+0x61f>
		getMsg(&msg);
    2fac:	83 ec 0c             	sub    $0xc,%esp
    2faf:	8d 45 a8             	lea    -0x58(%ebp),%eax
    2fb2:	50                   	push   %eax
    2fb3:	e8 a4 20 00 00       	call   505c <getMsg>
    2fb8:	83 c4 10             	add    $0x10,%esp
		switch (msg.msg_type) {
    2fbb:	8b 45 a8             	mov    -0x58(%ebp),%eax
    2fbe:	83 f8 08             	cmp    $0x8,%eax
    2fc1:	0f 87 9e 04 00 00    	ja     3465 <main+0x61e>
    2fc7:	8b 04 85 20 bc 00 00 	mov    0xbc20(,%eax,4),%eax
    2fce:	ff e0                	jmp    *%eax
		case MSG_DOUBLECLICK:
			p = initPoint(msg.concrete_msg.msg_mouse.x,
    2fd0:	8b 4d b0             	mov    -0x50(%ebp),%ecx
    2fd3:	8b 55 ac             	mov    -0x54(%ebp),%edx
    2fd6:	8d 45 a0             	lea    -0x60(%ebp),%eax
    2fd9:	83 ec 04             	sub    $0x4,%esp
    2fdc:	51                   	push   %ecx
    2fdd:	52                   	push   %edx
    2fde:	50                   	push   %eax
    2fdf:	e8 c8 17 00 00       	call   47ac <initPoint>
    2fe4:	83 c4 0c             	add    $0xc,%esp
					msg.concrete_msg.msg_mouse.y);
			if (executeHandler(cm.double_click, p)) {
    2fe7:	a1 44 40 01 00       	mov    0x14044,%eax
    2fec:	83 ec 04             	sub    $0x4,%esp
    2fef:	ff 75 a4             	pushl  -0x5c(%ebp)
    2ff2:	ff 75 a0             	pushl  -0x60(%ebp)
    2ff5:	50                   	push   %eax
    2ff6:	e8 6f 1a 00 00       	call   4a6a <executeHandler>
    2ffb:	83 c4 10             	add    $0x10,%esp
    2ffe:	85 c0                	test   %eax,%eax
    3000:	74 14                	je     3016 <main+0x1cf>
				updateWindow(winid, context.addr);
    3002:	a1 00 3f 01 00       	mov    0x13f00,%eax
    3007:	83 ec 08             	sub    $0x8,%esp
    300a:	50                   	push   %eax
    300b:	ff 75 e4             	pushl  -0x1c(%ebp)
    300e:	e8 61 20 00 00       	call   5074 <updateWindow>
    3013:	83 c4 10             	add    $0x10,%esp
			}
			break;
    3016:	e9 4b 04 00 00       	jmp    3466 <main+0x61f>
		case MSG_UPDATE:
			//printf(0, "update event!\n");
			drawFinderContent(context);
    301b:	83 ec 04             	sub    $0x4,%esp
    301e:	ff 35 08 3f 01 00    	pushl  0x13f08
    3024:	ff 35 04 3f 01 00    	pushl  0x13f04
    302a:	ff 35 00 3f 01 00    	pushl  0x13f00
    3030:	e8 0d dd ff ff       	call   d42 <drawFinderContent>
    3035:	83 c4 10             	add    $0x10,%esp
			drawFinderWnd(context);
    3038:	83 ec 04             	sub    $0x4,%esp
    303b:	ff 35 08 3f 01 00    	pushl  0x13f08
    3041:	ff 35 04 3f 01 00    	pushl  0x13f04
    3047:	ff 35 00 3f 01 00    	pushl  0x13f00
    304d:	e8 7d da ff ff       	call   acf <drawFinderWnd>
    3052:	83 c4 10             	add    $0x10,%esp
			updateWindow(winid, context.addr);
    3055:	a1 00 3f 01 00       	mov    0x13f00,%eax
    305a:	83 ec 08             	sub    $0x8,%esp
    305d:	50                   	push   %eax
    305e:	ff 75 e4             	pushl  -0x1c(%ebp)
    3061:	e8 0e 20 00 00       	call   5074 <updateWindow>
    3066:	83 c4 10             	add    $0x10,%esp
			break;
    3069:	e9 f8 03 00 00       	jmp    3466 <main+0x61f>
		case MSG_PARTIAL_UPDATE:
			updatePartialWindow(winid, context.addr,
    306e:	8b 75 b8             	mov    -0x48(%ebp),%esi
    3071:	8b 5d b4             	mov    -0x4c(%ebp),%ebx
    3074:	8b 4d b0             	mov    -0x50(%ebp),%ecx
    3077:	8b 55 ac             	mov    -0x54(%ebp),%edx
    307a:	a1 00 3f 01 00       	mov    0x13f00,%eax
    307f:	83 ec 08             	sub    $0x8,%esp
    3082:	56                   	push   %esi
    3083:	53                   	push   %ebx
    3084:	51                   	push   %ecx
    3085:	52                   	push   %edx
    3086:	50                   	push   %eax
    3087:	ff 75 e4             	pushl  -0x1c(%ebp)
    308a:	e8 ed 1f 00 00       	call   507c <updatePartialWindow>
    308f:	83 c4 20             	add    $0x20,%esp
					msg.concrete_msg.msg_partial_update.x1,
					msg.concrete_msg.msg_partial_update.y1,
					msg.concrete_msg.msg_partial_update.x2,
					msg.concrete_msg.msg_partial_update.y2);
			break;
    3092:	e9 cf 03 00 00       	jmp    3466 <main+0x61f>
		case MSG_LPRESS:
			//printf(0, "left click event!\n");
			p = initPoint(msg.concrete_msg.msg_mouse.x,
    3097:	8b 4d b0             	mov    -0x50(%ebp),%ecx
    309a:	8b 55 ac             	mov    -0x54(%ebp),%edx
    309d:	8d 85 70 ff ff ff    	lea    -0x90(%ebp),%eax
    30a3:	83 ec 04             	sub    $0x4,%esp
    30a6:	51                   	push   %ecx
    30a7:	52                   	push   %edx
    30a8:	50                   	push   %eax
    30a9:	e8 fe 16 00 00       	call   47ac <initPoint>
    30ae:	83 c4 0c             	add    $0xc,%esp
    30b1:	8b 85 70 ff ff ff    	mov    -0x90(%ebp),%eax
    30b7:	8b 95 74 ff ff ff    	mov    -0x8c(%ebp),%edx
    30bd:	89 45 a0             	mov    %eax,-0x60(%ebp)
    30c0:	89 55 a4             	mov    %edx,-0x5c(%ebp)
					msg.concrete_msg.msg_mouse.y);
			// if (executeHandler(cm.left_click, p)) {
			// 	updateWindow(winid, context.addr);
			// }
			if(renaming == 1){
    30c3:	a1 54 40 01 00       	mov    0x14054,%eax
    30c8:	83 f8 01             	cmp    $0x1,%eax
    30cb:	75 19                	jne    30e6 <main+0x29f>
				unrename();
    30cd:	e8 d0 f0 ff ff       	call   21a2 <unrename>
				updateWindow(winid, context.addr);
    30d2:	a1 00 3f 01 00       	mov    0x13f00,%eax
    30d7:	83 ec 08             	sub    $0x8,%esp
    30da:	50                   	push   %eax
    30db:	ff 75 e4             	pushl  -0x1c(%ebp)
    30de:	e8 91 1f 00 00       	call   5074 <updateWindow>
    30e3:	83 c4 10             	add    $0x10,%esp
			}
			executeHandler(cm.left_click, p);
    30e6:	a1 40 40 01 00       	mov    0x14040,%eax
    30eb:	83 ec 04             	sub    $0x4,%esp
    30ee:	ff 75 a4             	pushl  -0x5c(%ebp)
    30f1:	ff 75 a0             	pushl  -0x60(%ebp)
    30f4:	50                   	push   %eax
    30f5:	e8 70 19 00 00       	call   4a6a <executeHandler>
    30fa:	83 c4 10             	add    $0x10,%esp
			draw_searchbox();
    30fd:	e8 98 cf ff ff       	call   9a <draw_searchbox>
			puts_str(context, keyContent.content, 0, 10 * BUTTON_WIDTH + 100, TOPBAR_HEIGHT + TOOLSBAR_HEIGHT
    3102:	83 ec 04             	sub    $0x4,%esp
    3105:	6a 28                	push   $0x28
    3107:	68 a4 01 00 00       	push   $0x1a4
    310c:	6a 00                	push   $0x0
    310e:	68 0c 3f 01 00       	push   $0x13f0c
    3113:	ff 35 08 3f 01 00    	pushl  0x13f08
    3119:	ff 35 04 3f 01 00    	pushl  0x13f04
    311f:	ff 35 00 3f 01 00    	pushl  0x13f00
    3125:	e8 b9 0a 00 00       	call   3be3 <puts_str>
    312a:	83 c4 20             	add    $0x20,%esp
				- (BUTTON_HEIGHT + 3) + 5);
			updateWindow(winid, context.addr);
    312d:	a1 00 3f 01 00       	mov    0x13f00,%eax
    3132:	83 ec 08             	sub    $0x8,%esp
    3135:	50                   	push   %eax
    3136:	ff 75 e4             	pushl  -0x1c(%ebp)
    3139:	e8 36 1f 00 00       	call   5074 <updateWindow>
    313e:	83 c4 10             	add    $0x10,%esp
			break;
    3141:	e9 20 03 00 00       	jmp    3466 <main+0x61f>
		case MSG_RPRESS:
			p = initPoint(msg.concrete_msg.msg_mouse.x,
    3146:	8b 4d b0             	mov    -0x50(%ebp),%ecx
    3149:	8b 55 ac             	mov    -0x54(%ebp),%edx
    314c:	8d 85 70 ff ff ff    	lea    -0x90(%ebp),%eax
    3152:	83 ec 04             	sub    $0x4,%esp
    3155:	51                   	push   %ecx
    3156:	52                   	push   %edx
    3157:	50                   	push   %eax
    3158:	e8 4f 16 00 00       	call   47ac <initPoint>
    315d:	83 c4 0c             	add    $0xc,%esp
    3160:	8b 85 70 ff ff ff    	mov    -0x90(%ebp),%eax
    3166:	8b 95 74 ff ff ff    	mov    -0x8c(%ebp),%edx
    316c:	89 45 a0             	mov    %eax,-0x60(%ebp)
    316f:	89 55 a4             	mov    %edx,-0x5c(%ebp)
					msg.concrete_msg.msg_mouse.y);
			if (executeHandler(cm.right_click, p)) {
    3172:	a1 48 40 01 00       	mov    0x14048,%eax
    3177:	83 ec 04             	sub    $0x4,%esp
    317a:	ff 75 a4             	pushl  -0x5c(%ebp)
    317d:	ff 75 a0             	pushl  -0x60(%ebp)
    3180:	50                   	push   %eax
    3181:	e8 e4 18 00 00       	call   4a6a <executeHandler>
    3186:	83 c4 10             	add    $0x10,%esp
    3189:	85 c0                	test   %eax,%eax
    318b:	74 14                	je     31a1 <main+0x35a>
				updateWindow(winid, context.addr);
    318d:	a1 00 3f 01 00       	mov    0x13f00,%eax
    3192:	83 ec 08             	sub    $0x8,%esp
    3195:	50                   	push   %eax
    3196:	ff 75 e4             	pushl  -0x1c(%ebp)
    3199:	e8 d6 1e 00 00       	call   5074 <updateWindow>
    319e:	83 c4 10             	add    $0x10,%esp
			}
			break;
    31a1:	e9 c0 02 00 00       	jmp    3466 <main+0x61f>
		case MSG_KEYDOWN:
			key = msg.concrete_msg.msg_key.key;
    31a6:	0f b6 45 ac          	movzbl -0x54(%ebp),%eax
    31aa:	88 45 e3             	mov    %al,-0x1d(%ebp)
			if (isSearching) {
    31ad:	a1 c0 35 01 00       	mov    0x135c0,%eax
    31b2:	85 c0                	test   %eax,%eax
    31b4:	0f 84 6b 01 00 00    	je     3325 <main+0x4de>
				if (((key=='_')||(key=='.')||(key>='0'&&key<='9')||(key>='a'&&key<='z')||(key>='A'&&key<='Z')) && (keyContent.length<MAX_KEYLENGTH)) {
    31ba:	80 7d e3 5f          	cmpb   $0x5f,-0x1d(%ebp)
    31be:	74 2a                	je     31ea <main+0x3a3>
    31c0:	80 7d e3 2e          	cmpb   $0x2e,-0x1d(%ebp)
    31c4:	74 24                	je     31ea <main+0x3a3>
    31c6:	80 7d e3 2f          	cmpb   $0x2f,-0x1d(%ebp)
    31ca:	7e 06                	jle    31d2 <main+0x38b>
    31cc:	80 7d e3 39          	cmpb   $0x39,-0x1d(%ebp)
    31d0:	7e 18                	jle    31ea <main+0x3a3>
    31d2:	80 7d e3 60          	cmpb   $0x60,-0x1d(%ebp)
    31d6:	7e 06                	jle    31de <main+0x397>
    31d8:	80 7d e3 7a          	cmpb   $0x7a,-0x1d(%ebp)
    31dc:	7e 0c                	jle    31ea <main+0x3a3>
    31de:	80 7d e3 40          	cmpb   $0x40,-0x1d(%ebp)
    31e2:	7e 4b                	jle    322f <main+0x3e8>
    31e4:	80 7d e3 5a          	cmpb   $0x5a,-0x1d(%ebp)
    31e8:	7f 45                	jg     322f <main+0x3e8>
    31ea:	a1 20 3f 01 00       	mov    0x13f20,%eax
    31ef:	83 f8 13             	cmp    $0x13,%eax
    31f2:	7f 3b                	jg     322f <main+0x3e8>
					keyContent.content[keyContent.length++] = key;
    31f4:	a1 20 3f 01 00       	mov    0x13f20,%eax
    31f9:	8d 50 01             	lea    0x1(%eax),%edx
    31fc:	89 15 20 3f 01 00    	mov    %edx,0x13f20
    3202:	0f b6 55 e3          	movzbl -0x1d(%ebp),%edx
    3206:	88 90 0c 3f 01 00    	mov    %dl,0x13f0c(%eax)
					scrollOffset = 0;
    320c:	c7 05 40 07 01 00 00 	movl   $0x0,0x10740
    3213:	00 00 00 
					printf(0, "%s\n", keyContent.content);
    3216:	83 ec 04             	sub    $0x4,%esp
    3219:	68 0c 3f 01 00       	push   $0x13f0c
    321e:	68 d4 b8 00 00       	push   $0xb8d4
    3223:	6a 00                	push   $0x0
    3225:	e8 6f 1f 00 00       	call   5199 <printf>
    322a:	83 c4 10             	add    $0x10,%esp
    322d:	eb 32                	jmp    3261 <main+0x41a>
				}
				else if (key == 8 && keyContent.length > 0) {
    322f:	80 7d e3 08          	cmpb   $0x8,-0x1d(%ebp)
    3233:	75 2c                	jne    3261 <main+0x41a>
    3235:	a1 20 3f 01 00       	mov    0x13f20,%eax
    323a:	85 c0                	test   %eax,%eax
    323c:	7e 23                	jle    3261 <main+0x41a>
					keyContent.content[--keyContent.length] = 0;
    323e:	a1 20 3f 01 00       	mov    0x13f20,%eax
    3243:	83 e8 01             	sub    $0x1,%eax
    3246:	a3 20 3f 01 00       	mov    %eax,0x13f20
    324b:	a1 20 3f 01 00       	mov    0x13f20,%eax
    3250:	c6 80 0c 3f 01 00 00 	movb   $0x0,0x13f0c(%eax)
					scrollOffset = 0;
    3257:	c7 05 40 07 01 00 00 	movl   $0x0,0x10740
    325e:	00 00 00 
				}
				deleteClickable(&cm.left_click, initRect(0, 0, 800, 600));
    3261:	8d 45 d0             	lea    -0x30(%ebp),%eax
    3264:	83 ec 0c             	sub    $0xc,%esp
    3267:	68 58 02 00 00       	push   $0x258
    326c:	68 20 03 00 00       	push   $0x320
    3271:	6a 00                	push   $0x0
    3273:	6a 00                	push   $0x0
    3275:	50                   	push   %eax
    3276:	e8 58 15 00 00       	call   47d3 <initRect>
    327b:	83 c4 1c             	add    $0x1c,%esp
    327e:	83 ec 0c             	sub    $0xc,%esp
    3281:	ff 75 dc             	pushl  -0x24(%ebp)
    3284:	ff 75 d8             	pushl  -0x28(%ebp)
    3287:	ff 75 d4             	pushl  -0x2c(%ebp)
    328a:	ff 75 d0             	pushl  -0x30(%ebp)
    328d:	68 40 40 01 00       	push   $0x14040
    3292:	e8 01 17 00 00       	call   4998 <deleteClickable>
    3297:	83 c4 20             	add    $0x20,%esp
				addWndEvent(&cm);
    329a:	83 ec 0c             	sub    $0xc,%esp
    329d:	68 40 40 01 00       	push   $0x14040
    32a2:	e8 03 df ff ff       	call   11aa <addWndEvent>
    32a7:	83 c4 10             	add    $0x10,%esp
				updateFileList(context);
    32aa:	83 ec 04             	sub    $0x4,%esp
    32ad:	ff 35 08 3f 01 00    	pushl  0x13f08
    32b3:	ff 35 04 3f 01 00    	pushl  0x13f04
    32b9:	ff 35 00 3f 01 00    	pushl  0x13f00
    32bf:	e8 2b d9 ff ff       	call   bef <updateFileList>
    32c4:	83 c4 10             	add    $0x10,%esp
				addListEvent(&cm);
    32c7:	83 ec 0c             	sub    $0xc,%esp
    32ca:	68 40 40 01 00       	push   $0x14040
    32cf:	e8 7b de ff ff       	call   114f <addListEvent>
    32d4:	83 c4 10             	add    $0x10,%esp
				drawFinderContent(context);
    32d7:	83 ec 04             	sub    $0x4,%esp
    32da:	ff 35 08 3f 01 00    	pushl  0x13f08
    32e0:	ff 35 04 3f 01 00    	pushl  0x13f04
    32e6:	ff 35 00 3f 01 00    	pushl  0x13f00
    32ec:	e8 51 da ff ff       	call   d42 <drawFinderContent>
    32f1:	83 c4 10             	add    $0x10,%esp
				drawFinderWnd(context);
    32f4:	83 ec 04             	sub    $0x4,%esp
    32f7:	ff 35 08 3f 01 00    	pushl  0x13f08
    32fd:	ff 35 04 3f 01 00    	pushl  0x13f04
    3303:	ff 35 00 3f 01 00    	pushl  0x13f00
    3309:	e8 c1 d7 ff ff       	call   acf <drawFinderWnd>
    330e:	83 c4 10             	add    $0x10,%esp
				updateWindow(winid, context.addr);
    3311:	a1 00 3f 01 00       	mov    0x13f00,%eax
    3316:	83 ec 08             	sub    $0x8,%esp
    3319:	50                   	push   %eax
    331a:	ff 75 e4             	pushl  -0x1c(%ebp)
    331d:	e8 52 1d 00 00       	call   5074 <updateWindow>
    3322:	83 c4 10             	add    $0x10,%esp
			}
			if (renaming) {
    3325:	a1 54 40 01 00       	mov    0x14054,%eax
    332a:	85 c0                	test   %eax,%eax
    332c:	0f 84 31 01 00 00    	je     3463 <main+0x61c>
				if (((key=='_')||(key=='.')||(key>='0'&&key<='9')||(key>='a'&&key<='z')||(key>='A'&&key<='Z')) && (strlen(currentlyRenaming->name)<30)) {
    3332:	80 7d e3 5f          	cmpb   $0x5f,-0x1d(%ebp)
    3336:	74 2a                	je     3362 <main+0x51b>
    3338:	80 7d e3 2e          	cmpb   $0x2e,-0x1d(%ebp)
    333c:	74 24                	je     3362 <main+0x51b>
    333e:	80 7d e3 2f          	cmpb   $0x2f,-0x1d(%ebp)
    3342:	7e 06                	jle    334a <main+0x503>
    3344:	80 7d e3 39          	cmpb   $0x39,-0x1d(%ebp)
    3348:	7e 18                	jle    3362 <main+0x51b>
    334a:	80 7d e3 60          	cmpb   $0x60,-0x1d(%ebp)
    334e:	7e 06                	jle    3356 <main+0x50f>
    3350:	80 7d e3 7a          	cmpb   $0x7a,-0x1d(%ebp)
    3354:	7e 0c                	jle    3362 <main+0x51b>
    3356:	80 7d e3 40          	cmpb   $0x40,-0x1d(%ebp)
    335a:	7e 6a                	jle    33c6 <main+0x57f>
    335c:	80 7d e3 5a          	cmpb   $0x5a,-0x1d(%ebp)
    3360:	7f 64                	jg     33c6 <main+0x57f>
    3362:	a1 4c 07 01 00       	mov    0x1074c,%eax
    3367:	8b 40 14             	mov    0x14(%eax),%eax
    336a:	83 ec 0c             	sub    $0xc,%esp
    336d:	50                   	push   %eax
    336e:	e8 88 1a 00 00       	call   4dfb <strlen>
    3373:	83 c4 10             	add    $0x10,%esp
    3376:	83 f8 1d             	cmp    $0x1d,%eax
    3379:	77 4b                	ja     33c6 <main+0x57f>
					currentlyRenaming->name[strlen(currentlyRenaming->name) + 1] = 0;
    337b:	a1 4c 07 01 00       	mov    0x1074c,%eax
    3380:	8b 58 14             	mov    0x14(%eax),%ebx
    3383:	a1 4c 07 01 00       	mov    0x1074c,%eax
    3388:	8b 40 14             	mov    0x14(%eax),%eax
    338b:	83 ec 0c             	sub    $0xc,%esp
    338e:	50                   	push   %eax
    338f:	e8 67 1a 00 00       	call   4dfb <strlen>
    3394:	83 c4 10             	add    $0x10,%esp
    3397:	83 c0 01             	add    $0x1,%eax
    339a:	01 d8                	add    %ebx,%eax
    339c:	c6 00 00             	movb   $0x0,(%eax)
					currentlyRenaming->name[strlen(currentlyRenaming->name)] = key;
    339f:	a1 4c 07 01 00       	mov    0x1074c,%eax
    33a4:	8b 58 14             	mov    0x14(%eax),%ebx
    33a7:	a1 4c 07 01 00       	mov    0x1074c,%eax
    33ac:	8b 40 14             	mov    0x14(%eax),%eax
    33af:	83 ec 0c             	sub    $0xc,%esp
    33b2:	50                   	push   %eax
    33b3:	e8 43 1a 00 00       	call   4dfb <strlen>
    33b8:	83 c4 10             	add    $0x10,%esp
    33bb:	8d 14 03             	lea    (%ebx,%eax,1),%edx
    33be:	0f b6 45 e3          	movzbl -0x1d(%ebp),%eax
    33c2:	88 02                	mov    %al,(%edx)
    33c4:	eb 4f                	jmp    3415 <main+0x5ce>
				}
				else if (key == 8 && (strlen(currentlyRenaming->name)>0)) {
    33c6:	80 7d e3 08          	cmpb   $0x8,-0x1d(%ebp)
    33ca:	75 3e                	jne    340a <main+0x5c3>
    33cc:	a1 4c 07 01 00       	mov    0x1074c,%eax
    33d1:	8b 40 14             	mov    0x14(%eax),%eax
    33d4:	83 ec 0c             	sub    $0xc,%esp
    33d7:	50                   	push   %eax
    33d8:	e8 1e 1a 00 00       	call   4dfb <strlen>
    33dd:	83 c4 10             	add    $0x10,%esp
    33e0:	85 c0                	test   %eax,%eax
    33e2:	74 26                	je     340a <main+0x5c3>
					currentlyRenaming->name[strlen(currentlyRenaming->name) - 1] = 0;
    33e4:	a1 4c 07 01 00       	mov    0x1074c,%eax
    33e9:	8b 58 14             	mov    0x14(%eax),%ebx
    33ec:	a1 4c 07 01 00       	mov    0x1074c,%eax
    33f1:	8b 40 14             	mov    0x14(%eax),%eax
    33f4:	83 ec 0c             	sub    $0xc,%esp
    33f7:	50                   	push   %eax
    33f8:	e8 fe 19 00 00       	call   4dfb <strlen>
    33fd:	83 c4 10             	add    $0x10,%esp
    3400:	83 e8 01             	sub    $0x1,%eax
    3403:	01 d8                	add    %ebx,%eax
    3405:	c6 00 00             	movb   $0x0,(%eax)
    3408:	eb 0b                	jmp    3415 <main+0x5ce>
				} else if (key == '\n') {
    340a:	80 7d e3 0a          	cmpb   $0xa,-0x1d(%ebp)
    340e:	75 05                	jne    3415 <main+0x5ce>
					unrename();
    3410:	e8 8d ed ff ff       	call   21a2 <unrename>
				}
				drawFinderContent(context);
    3415:	83 ec 04             	sub    $0x4,%esp
    3418:	ff 35 08 3f 01 00    	pushl  0x13f08
    341e:	ff 35 04 3f 01 00    	pushl  0x13f04
    3424:	ff 35 00 3f 01 00    	pushl  0x13f00
    342a:	e8 13 d9 ff ff       	call   d42 <drawFinderContent>
    342f:	83 c4 10             	add    $0x10,%esp
				drawFinderWnd(context);
    3432:	83 ec 04             	sub    $0x4,%esp
    3435:	ff 35 08 3f 01 00    	pushl  0x13f08
    343b:	ff 35 04 3f 01 00    	pushl  0x13f04
    3441:	ff 35 00 3f 01 00    	pushl  0x13f00
    3447:	e8 83 d6 ff ff       	call   acf <drawFinderWnd>
    344c:	83 c4 10             	add    $0x10,%esp
				updateWindow(winid, context.addr);
    344f:	a1 00 3f 01 00       	mov    0x13f00,%eax
    3454:	83 ec 08             	sub    $0x8,%esp
    3457:	50                   	push   %eax
    3458:	ff 75 e4             	pushl  -0x1c(%ebp)
    345b:	e8 14 1c 00 00       	call   5074 <updateWindow>
    3460:	83 c4 10             	add    $0x10,%esp
			}
			break;
    3463:	eb 01                	jmp    3466 <main+0x61f>
		default:
			break;
    3465:	90                   	nop
	updateFileList(context);
	deleteClickable(&cm.left_click, initRect(0, 0, 800, 600));
	addWndEvent(&cm);
	addListEvent(&cm);
	lenOfWaited = 0;
	while (isRun) {
    3466:	a1 00 fd 00 00       	mov    0xfd00,%eax
    346b:	85 c0                	test   %eax,%eax
    346d:	0f 85 39 fb ff ff    	jne    2fac <main+0x165>
			break;
		default:
			break;
		}
	}
	free_context(&context, winid);
    3473:	83 ec 08             	sub    $0x8,%esp
    3476:	ff 75 e4             	pushl  -0x1c(%ebp)
    3479:	68 00 3f 01 00       	push   $0x13f00
    347e:	e8 95 01 00 00       	call   3618 <free_context>
    3483:	83 c4 10             	add    $0x10,%esp
	exit();
    3486:	e8 31 1b 00 00       	call   4fbc <exit>

0000348b <testHandlers>:
}

void testHandlers() {
    348b:	55                   	push   %ebp
    348c:	89 e5                	mov    %esp,%ebp
    348e:	83 ec 08             	sub    $0x8,%esp

	list(".");
    3491:	83 ec 0c             	sub    $0xc,%esp
    3494:	68 c8 b8 00 00       	push   $0xb8c8
    3499:	e8 e9 cf ff ff       	call   487 <list>
    349e:	83 c4 10             	add    $0x10,%esp
	printf(0, "original list:\n");
    34a1:	83 ec 08             	sub    $0x8,%esp
    34a4:	68 44 bc 00 00       	push   $0xbc44
    34a9:	6a 00                	push   $0x0
    34ab:	e8 e9 1c 00 00       	call   5199 <printf>
    34b0:	83 c4 10             	add    $0x10,%esp
	printItemList();
    34b3:	e8 f8 da ff ff       	call   fb0 <printItemList>
	printf(0, "\n");
    34b8:	83 ec 08             	sub    $0x8,%esp
    34bb:	68 54 bc 00 00       	push   $0xbc54
    34c0:	6a 00                	push   $0x0
    34c2:	e8 d2 1c 00 00       	call   5199 <printf>
    34c7:	83 c4 10             	add    $0x10,%esp
	printf(0, "new a folder:\n");
    34ca:	83 ec 08             	sub    $0x8,%esp
    34cd:	68 56 bc 00 00       	push   $0xbc56
    34d2:	6a 00                	push   $0x0
    34d4:	e8 c0 1c 00 00       	call   5199 <printf>
    34d9:	83 c4 10             	add    $0x10,%esp
	newFolder("newfolder");
    34dc:	83 ec 0c             	sub    $0xc,%esp
    34df:	68 65 bc 00 00       	push   $0xbc65
    34e4:	e8 64 e6 ff ff       	call   1b4d <newFolder>
    34e9:	83 c4 10             	add    $0x10,%esp
	freeFileItemList();
    34ec:	e8 ac ce ff ff       	call   39d <freeFileItemList>
	list(".");
    34f1:	83 ec 0c             	sub    $0xc,%esp
    34f4:	68 c8 b8 00 00       	push   $0xb8c8
    34f9:	e8 89 cf ff ff       	call   487 <list>
    34fe:	83 c4 10             	add    $0x10,%esp
	printItemList();
